Component: ARM Compiler 5.06 update 6 (build 750) Tool: armlink [4d35ed]

==============================================================================

Section Cross References

    startup_stm32f302xc.o(RESET) refers to startup_stm32f302xc.o(STACK) for __initial_sp
    startup_stm32f302xc.o(RESET) refers to startup_stm32f302xc.o(.text) for Reset_Handler
    startup_stm32f302xc.o(RESET) refers to stm32f3xx_it.o(i.NMI_Handler) for NMI_Handler
    startup_stm32f302xc.o(RESET) refers to stm32f3xx_it.o(i.HardFault_Handler) for HardFault_Handler
    startup_stm32f302xc.o(RESET) refers to stm32f3xx_it.o(i.MemManage_Handler) for MemManage_Handler
    startup_stm32f302xc.o(RESET) refers to stm32f3xx_it.o(i.BusFault_Handler) for BusFault_Handler
    startup_stm32f302xc.o(RESET) refers to stm32f3xx_it.o(i.UsageFault_Handler) for UsageFault_Handler
    startup_stm32f302xc.o(RESET) refers to stm32f3xx_it.o(i.SVC_Handler) for SVC_Handler
    startup_stm32f302xc.o(RESET) refers to stm32f3xx_it.o(i.DebugMon_Handler) for DebugMon_Handler
    startup_stm32f302xc.o(RESET) refers to stm32f3xx_it.o(i.PendSV_Handler) for PendSV_Handler
    startup_stm32f302xc.o(RESET) refers to stm32f3xx_it.o(i.SysTick_Handler) for SysTick_Handler
    startup_stm32f302xc.o(RESET) refers to stm32f3xx_it.o(i.DMA1_Channel1_IRQHandler) for DMA1_Channel1_IRQHandler
    startup_stm32f302xc.o(RESET) refers to stm32f3xx_it.o(i.DMA1_Channel2_IRQHandler) for DMA1_Channel2_IRQHandler
    startup_stm32f302xc.o(RESET) refers to stm32f3xx_it.o(i.DMA1_Channel3_IRQHandler) for DMA1_Channel3_IRQHandler
    startup_stm32f302xc.o(RESET) refers to stm32f3xx_it.o(i.ADC1_2_IRQHandler) for ADC1_2_IRQHandler
    startup_stm32f302xc.o(RESET) refers to stm32f3xx_it.o(i.TIM1_UP_TIM16_IRQHandler) for TIM1_UP_TIM16_IRQHandler
    startup_stm32f302xc.o(RESET) refers to stm32f3xx_it.o(i.TIM2_IRQHandler) for TIM2_IRQHandler
    startup_stm32f302xc.o(RESET) refers to stm32f3xx_it.o(i.USART3_IRQHandler) for USART3_IRQHandler
    startup_stm32f302xc.o(.text) refers to system_stm32f3xx.o(i.SystemInit) for SystemInit
    startup_stm32f302xc.o(.text) refers to entry.o(.ARM.Collect$$$$00000000) for __main
    main.o(i.Delay_10ms) refers to main.o(i.Delay2us) for Delay2us
    main.o(i.HAL_UART_RxCpltCallback) refers to memseta.o(.text) for __aeabi_memclr4
    main.o(i.HAL_UART_RxCpltCallback) refers to main.o(.data) for .data
    main.o(i.M26_PowerDown) refers to main.o(i.m26_send_cmd) for m26_send_cmd
    main.o(i.M26_PowerOn) refers to memseta.o(.text) for __aeabi_memclr4
    main.o(i.M26_PowerOn) refers to stm32f3xx_hal_gpio.o(i.HAL_GPIO_Init) for HAL_GPIO_Init
    main.o(i.M26_PowerOn) refers to stm32f3xx_hal_gpio.o(i.HAL_GPIO_WritePin) for HAL_GPIO_WritePin
    main.o(i.M26_PowerOn) refers to main.o(i.Delay_10ms) for Delay_10ms
    main.o(i.MX_ADC1_Init) refers to memseta.o(.text) for __aeabi_memclr4
    main.o(i.MX_ADC1_Init) refers to stm32f3xx_hal_adc_ex.o(i.HAL_ADC_Init) for HAL_ADC_Init
    main.o(i.MX_ADC1_Init) refers to stm32f3xx_hal_adc_ex.o(i.HAL_ADCEx_MultiModeConfigChannel) for HAL_ADCEx_MultiModeConfigChannel
    main.o(i.MX_ADC1_Init) refers to stm32f3xx_hal_adc_ex.o(i.HAL_ADC_ConfigChannel) for HAL_ADC_ConfigChannel
    main.o(i.MX_ADC1_Init) refers to stm32f3xx_hal_adc_ex.o(i.HAL_ADCEx_Calibration_Start) for HAL_ADCEx_Calibration_Start
    main.o(i.MX_ADC1_Init) refers to main.o(.bss) for .bss
    main.o(i.MX_IWDG_Init1) refers to stm32f3xx_hal_iwdg.o(i.HAL_IWDG_Init) for HAL_IWDG_Init
    main.o(i.MX_IWDG_Init1) refers to main.o(.bss) for .bss
    main.o(i.MX_TIM1_Init) refers to stm32f3xx_hal_tim.o(i.HAL_TIM_Base_Init) for HAL_TIM_Base_Init
    main.o(i.MX_TIM1_Init) refers to stm32f3xx_hal_tim.o(i.HAL_TIM_ConfigClockSource) for HAL_TIM_ConfigClockSource
    main.o(i.MX_TIM1_Init) refers to stm32f3xx_hal_tim_ex.o(i.HAL_TIMEx_MasterConfigSynchronization) for HAL_TIMEx_MasterConfigSynchronization
    main.o(i.MX_TIM1_Init) refers to stm32f3xx_hal_tim.o(i.HAL_TIM_Base_Start_IT) for HAL_TIM_Base_Start_IT
    main.o(i.MX_TIM1_Init) refers to main.o(.bss) for .bss
    main.o(i.MX_TIM2_Init) refers to stm32f3xx_hal_cortex.o(i.HAL_NVIC_SetPriority) for HAL_NVIC_SetPriority
    main.o(i.MX_TIM2_Init) refers to stm32f3xx_hal_cortex.o(i.HAL_NVIC_EnableIRQ) for HAL_NVIC_EnableIRQ
    main.o(i.MX_TIM2_Init) refers to stm32f3xx_hal_tim.o(i.HAL_TIM_Base_Init) for HAL_TIM_Base_Init
    main.o(i.MX_TIM2_Init) refers to stm32f3xx_hal_tim.o(i.HAL_TIM_ConfigClockSource) for HAL_TIM_ConfigClockSource
    main.o(i.MX_TIM2_Init) refers to stm32f3xx_hal_tim.o(i.HAL_TIM_Base_Start_IT) for HAL_TIM_Base_Start_IT
    main.o(i.MX_TIM2_Init) refers to main.o(.bss) for .bss
    main.o(i.MX_USART3_UART_Init) refers to stm32f3xx_hal_uart.o(i.HAL_UART_Init) for HAL_UART_Init
    main.o(i.MX_USART3_UART_Init) refers to main.o(.bss) for .bss
    main.o(i.SystemClock_Config) refers to memseta.o(.text) for __aeabi_memclr4
    main.o(i.SystemClock_Config) refers to stm32f3xx_hal_rcc.o(i.HAL_RCC_OscConfig) for HAL_RCC_OscConfig
    main.o(i.SystemClock_Config) refers to stm32f3xx_hal_rcc.o(i.HAL_RCC_ClockConfig) for HAL_RCC_ClockConfig
    main.o(i.SystemClock_Config) refers to stm32f3xx_hal_rcc_ex.o(i.HAL_RCCEx_PeriphCLKConfig) for HAL_RCCEx_PeriphCLKConfig
    main.o(i.m26_send_cmd) refers to strlen.o(.text) for strlen
    main.o(i.m26_send_cmd) refers to stm32f3xx_hal_uart.o(i.HAL_UART_Transmit_DMA) for HAL_UART_Transmit_DMA
    main.o(i.m26_send_cmd) refers to main.o(i.Delay_10ms) for Delay_10ms
    main.o(i.m26_send_cmd) refers to stm32f3xx_hal_uart.o(i.HAL_UART_Receive_DMA) for HAL_UART_Receive_DMA
    main.o(i.m26_send_cmd) refers to strstr.o(.text) for strstr
    main.o(i.m26_send_cmd) refers to main.o(.data) for .data
    main.o(i.m26_send_cmd) refers to main.o(.bss) for .bss
    main.o(i.main) refers to stm32f3xx_hal.o(i.HAL_Init) for HAL_Init
    main.o(i.main) refers to main.o(i.SystemClock_Config) for SystemClock_Config
    main.o(i.main) refers to system_config.o(i.Beep_Init) for Beep_Init
    main.o(i.main) refers to system_config.o(i.Switch_Init) for Switch_Init
    main.o(i.main) refers to rn8302b.o(i.RN830B_SoftInit) for RN830B_SoftInit
    main.o(i.main) refers to rn8302b.o(i.fnRN8302_Init) for fnRN8302_Init
    main.o(i.main) refers to main.o(i.MX_TIM1_Init) for MX_TIM1_Init
    main.o(i.main) refers to main.o(i.MX_TIM2_Init) for MX_TIM2_Init
    main.o(i.main) refers to stm32f3xx_hal_cortex.o(i.HAL_NVIC_SetPriority) for HAL_NVIC_SetPriority
    main.o(i.main) refers to stm32f3xx_hal_cortex.o(i.HAL_NVIC_EnableIRQ) for HAL_NVIC_EnableIRQ
    main.o(i.main) refers to main.o(i.MX_USART3_UART_Init) for MX_USART3_UART_Init
    main.o(i.main) refers to main.o(i.MX_ADC1_Init) for MX_ADC1_Init
    main.o(i.main) refers to ht1622x.o(i.ht1622x_init) for ht1622x_init
    main.o(i.main) refers to tem_adc.o(i.Tem_AdcInit) for Tem_AdcInit
    main.o(i.main) refers to touchkey.o(i.touchBSP) for touchBSP
    main.o(i.main) refers to touchkey.o(i.Key_VirtualInit) for Key_VirtualInit
    main.o(i.main) refers to lcd_rt625181.o(i.disp_init) for disp_init
    main.o(i.main) refers to system_config.o(i.SysTem_SaveFileInit) for SysTem_SaveFileInit
    main.o(i.main) refers to rn8302b.o(i.RN8302B_CalibConfig) for RN8302B_CalibConfig
    main.o(i.main) refers to system_config.o(i.System_Config) for System_Config
    main.o(i.main) refers to lcd_rt625181.o(i.LCD_PowerOn) for LCD_PowerOn
    main.o(i.main) refers to m2g.o(i.Query_Init) for Query_Init
    main.o(i.main) refers to system_config.o(i.System_Led_Init) for System_Led_Init
    main.o(i.main) refers to main.o(i.MX_IWDG_Init1) for MX_IWDG_Init1
    main.o(i.main) refers to system_config.o(i.System_TimerPeriod) for System_TimerPeriod
    main.o(i.main) refers to tem_adc.o(i.Tem_AdcLoop) for Tem_AdcLoop
    main.o(i.main) refers to lcd_rt625181.o(i.dispLCD_Loop) for dispLCD_Loop
    main.o(i.main) refers to touchkey.o(i.Key_PeriodHandle) for Key_PeriodHandle
    main.o(i.main) refers to system_config.o(i.System_EnterMode) for System_EnterMode
    main.o(i.main) refers to tem_adc.o(i.EleHandle_Loop) for EleHandle_Loop
    main.o(i.main) refers to stm32f3xx_hal_iwdg.o(i.HAL_IWDG_Refresh) for HAL_IWDG_Refresh
    main.o(i.main) refers to main.o(.bss) for .bss
    stm32f3xx_it.o(i.ADC1_2_IRQHandler) refers to stm32f3xx_hal_adc_ex.o(i.HAL_ADC_IRQHandler) for HAL_ADC_IRQHandler
    stm32f3xx_it.o(i.ADC1_2_IRQHandler) refers to main.o(.bss) for hadc1
    stm32f3xx_it.o(i.DMA1_Channel1_IRQHandler) refers to stm32f3xx_hal_dma.o(i.HAL_DMA_IRQHandler) for HAL_DMA_IRQHandler
    stm32f3xx_it.o(i.DMA1_Channel1_IRQHandler) refers to main.o(.bss) for hdma_adc1
    stm32f3xx_it.o(i.DMA1_Channel2_IRQHandler) refers to stm32f3xx_hal_dma.o(i.HAL_DMA_IRQHandler) for HAL_DMA_IRQHandler
    stm32f3xx_it.o(i.DMA1_Channel2_IRQHandler) refers to main.o(.bss) for hdma_usart3_tx
    stm32f3xx_it.o(i.DMA1_Channel3_IRQHandler) refers to stm32f3xx_hal_dma.o(i.HAL_DMA_IRQHandler) for HAL_DMA_IRQHandler
    stm32f3xx_it.o(i.DMA1_Channel3_IRQHandler) refers to main.o(.bss) for hdma_usart3_rx
    stm32f3xx_it.o(i.SysTick_Handler) refers to stm32f3xx_hal.o(i.HAL_IncTick) for HAL_IncTick
    stm32f3xx_it.o(i.TIM1_UP_TIM16_IRQHandler) refers to stm32f3xx_hal_tim.o(i.HAL_TIM_IRQHandler) for HAL_TIM_IRQHandler
    stm32f3xx_it.o(i.TIM1_UP_TIM16_IRQHandler) refers to lcd_rt625181.o(i.dispSystick) for dispSystick
    stm32f3xx_it.o(i.TIM1_UP_TIM16_IRQHandler) refers to system_config.o(i.System_TimerUpdate) for System_TimerUpdate
    stm32f3xx_it.o(i.TIM1_UP_TIM16_IRQHandler) refers to main.o(.bss) for htim1
    stm32f3xx_it.o(i.TIM1_UP_TIM16_IRQHandler) refers to touchkey.o(.data) for gkey_timer_1msenable
    stm32f3xx_it.o(i.TIM2_IRQHandler) refers to stm32f3xx_hal_tim.o(i.HAL_TIM_IRQHandler) for HAL_TIM_IRQHandler
    stm32f3xx_it.o(i.TIM2_IRQHandler) refers to main.o(.bss) for htim2
    stm32f3xx_it.o(i.USART3_IRQHandler) refers to stm32f3xx_hal_uart.o(i.HAL_UART_IRQHandler) for HAL_UART_IRQHandler
    stm32f3xx_it.o(i.USART3_IRQHandler) refers to m2g.o(i.HAL_USART_User) for HAL_USART_User
    stm32f3xx_it.o(i.USART3_IRQHandler) refers to main.o(.bss) for huart3
    stm32f3xx_hal_msp.o(i.HAL_ADC_MspDeInit) refers to stm32f3xx_hal_gpio.o(i.HAL_GPIO_DeInit) for HAL_GPIO_DeInit
    stm32f3xx_hal_msp.o(i.HAL_ADC_MspDeInit) refers to stm32f3xx_hal_dma.o(i.HAL_DMA_DeInit) for HAL_DMA_DeInit
    stm32f3xx_hal_msp.o(i.HAL_ADC_MspDeInit) refers to stm32f3xx_hal_cortex.o(i.HAL_NVIC_DisableIRQ) for HAL_NVIC_DisableIRQ
    stm32f3xx_hal_msp.o(i.HAL_ADC_MspInit) refers to memseta.o(.text) for __aeabi_memclr4
    stm32f3xx_hal_msp.o(i.HAL_ADC_MspInit) refers to stm32f3xx_hal_gpio.o(i.HAL_GPIO_Init) for HAL_GPIO_Init
    stm32f3xx_hal_msp.o(i.HAL_ADC_MspInit) refers to stm32f3xx_hal_dma.o(i.HAL_DMA_Init) for HAL_DMA_Init
    stm32f3xx_hal_msp.o(i.HAL_ADC_MspInit) refers to main.o(i.Error_Handler) for Error_Handler
    stm32f3xx_hal_msp.o(i.HAL_ADC_MspInit) refers to stm32f3xx_hal_cortex.o(i.HAL_NVIC_SetPriority) for HAL_NVIC_SetPriority
    stm32f3xx_hal_msp.o(i.HAL_ADC_MspInit) refers to stm32f3xx_hal_cortex.o(i.HAL_NVIC_EnableIRQ) for HAL_NVIC_EnableIRQ
    stm32f3xx_hal_msp.o(i.HAL_ADC_MspInit) refers to main.o(.bss) for hdma_adc1
    stm32f3xx_hal_msp.o(i.HAL_TIM_Base_MspInit) refers to stm32f3xx_hal_cortex.o(i.HAL_NVIC_SetPriority) for HAL_NVIC_SetPriority
    stm32f3xx_hal_msp.o(i.HAL_TIM_Base_MspInit) refers to stm32f3xx_hal_cortex.o(i.HAL_NVIC_EnableIRQ) for HAL_NVIC_EnableIRQ
    stm32f3xx_hal_msp.o(i.HAL_UART_MspDeInit) refers to stm32f3xx_hal_gpio.o(i.HAL_GPIO_DeInit) for HAL_GPIO_DeInit
    stm32f3xx_hal_msp.o(i.HAL_UART_MspDeInit) refers to stm32f3xx_hal_dma.o(i.HAL_DMA_DeInit) for HAL_DMA_DeInit
    stm32f3xx_hal_msp.o(i.HAL_UART_MspDeInit) refers to stm32f3xx_hal_cortex.o(i.HAL_NVIC_DisableIRQ) for HAL_NVIC_DisableIRQ
    stm32f3xx_hal_msp.o(i.HAL_UART_MspInit) refers to memseta.o(.text) for __aeabi_memclr4
    stm32f3xx_hal_msp.o(i.HAL_UART_MspInit) refers to stm32f3xx_hal_gpio.o(i.HAL_GPIO_Init) for HAL_GPIO_Init
    stm32f3xx_hal_msp.o(i.HAL_UART_MspInit) refers to stm32f3xx_hal_dma.o(i.HAL_DMA_Init) for HAL_DMA_Init
    stm32f3xx_hal_msp.o(i.HAL_UART_MspInit) refers to main.o(i.Error_Handler) for Error_Handler
    stm32f3xx_hal_msp.o(i.HAL_UART_MspInit) refers to stm32f3xx_hal_cortex.o(i.HAL_NVIC_SetPriority) for HAL_NVIC_SetPriority
    stm32f3xx_hal_msp.o(i.HAL_UART_MspInit) refers to stm32f3xx_hal_cortex.o(i.HAL_NVIC_EnableIRQ) for HAL_NVIC_EnableIRQ
    stm32f3xx_hal_msp.o(i.HAL_UART_MspInit) refers to main.o(.bss) for hdma_usart3_rx
    stm32f3xx_hal_msp.o(i.HAL_UART_MspInit) refers to main.o(.bss) for hdma_usart3_tx
    system_config.o(i.Beep_Init) refers to memseta.o(.text) for __aeabi_memclr4
    system_config.o(i.Beep_Init) refers to stm32f3xx_hal_gpio.o(i.HAL_GPIO_Init) for HAL_GPIO_Init
    system_config.o(i.Beep_Init) refers to stm32f3xx_hal_gpio.o(i.HAL_GPIO_WritePin) for HAL_GPIO_WritePin
    system_config.o(i.Beep_Onoff) refers to stm32f3xx_hal_gpio.o(i.HAL_GPIO_WritePin) for HAL_GPIO_WritePin
    system_config.o(i.Key_HandleByUser) refers to system_config.o(i.Beep_Onoff) for Beep_Onoff
    system_config.o(i.Key_HandleByUser) refers to touchkey.o(i.Key_ClearEvent) for Key_ClearEvent
    system_config.o(i.Key_HandleByUser) refers to touchkey.o(.data) for keyEventValue
    system_config.o(i.Key_HandleByUser) refers to system_config.o(.data) for .data
    system_config.o(i.Key_HandleByUser) refers to system_config.o(.bss) for .bss
    system_config.o(i.Mode_adjust) refers to system_config.o(.data) for .data
    system_config.o(i.Restory_Watch) refers to system_config.o(i.Beep_Onoff) for Beep_Onoff
    system_config.o(i.Restory_Watch) refers to system_config.o(i.Switch_Alm) for Switch_Alm
    system_config.o(i.Restory_Watch) refers to system_config.o(.bss) for .bss
    system_config.o(i.Switch_Alm) refers to stm32f3xx_hal_gpio.o(i.HAL_GPIO_WritePin) for HAL_GPIO_WritePin
    system_config.o(i.Switch_Init) refers to memseta.o(.text) for __aeabi_memclr4
    system_config.o(i.Switch_Init) refers to stm32f3xx_hal_gpio.o(i.HAL_GPIO_Init) for HAL_GPIO_Init
    system_config.o(i.Switch_Init) refers to stm32f3xx_hal_gpio.o(i.HAL_GPIO_WritePin) for HAL_GPIO_WritePin
    system_config.o(i.SysTem_SaveFileInit) refers to stm32f3xx_hal_flash.o(i.HAL_FLASH_Unlock) for HAL_FLASH_Unlock
    system_config.o(i.SysTem_SaveFileInit) refers to stm32f3xx_hal_flash_ex.o(i.HAL_FLASHEx_Erase) for HAL_FLASHEx_Erase
    system_config.o(i.SysTem_SaveFileInit) refers to system_config.o(.bss) for .bss
    system_config.o(i.System_Config) refers to memseta.o(.text) for __aeabi_memclr4
    system_config.o(i.System_Config) refers to system_config.o(.bss) for .bss
    system_config.o(i.System_EnterMode) refers to system_config.o(i.Mode_adjust) for Mode_adjust
    system_config.o(i.System_EnterMode) refers to system_config.o(.data) for .data
    system_config.o(i.System_EnterMode) refers to system_config.o(.bss) for .bss
    system_config.o(i.System_FileSave) refers to stm32f3xx_hal_flash.o(i.HAL_FLASH_Unlock) for HAL_FLASH_Unlock
    system_config.o(i.System_FileSave) refers to stm32f3xx_hal_flash.o(i.HAL_FLASH_Program) for HAL_FLASH_Program
    system_config.o(i.System_FileSave) refers to stm32f3xx_hal_flash.o(i.HAL_FLASH_Lock) for HAL_FLASH_Lock
    system_config.o(i.System_Led_Init) refers to memseta.o(.text) for __aeabi_memclr4
    system_config.o(i.System_Led_Init) refers to stm32f3xx_hal_gpio.o(i.HAL_GPIO_Init) for HAL_GPIO_Init
    system_config.o(i.System_Led_Init) refers to stm32f3xx_hal_gpio.o(i.HAL_GPIO_WritePin) for HAL_GPIO_WritePin
    system_config.o(i.System_Led_Init) refers to system_config.o(i.System_Led_Onoff) for System_Led_Onoff
    system_config.o(i.System_Led_Onoff) refers to stm32f3xx_hal_gpio.o(i.HAL_GPIO_WritePin) for HAL_GPIO_WritePin
    system_config.o(i.System_Loop) refers to system_config.o(i.System_FileRead) for System_FileRead
    system_config.o(i.System_Loop) refers to system_config.o(i.System_SaveDb) for System_SaveDb
    system_config.o(i.System_SaveDb) refers to system_config.o(i.System_FileSave) for System_FileSave
    system_config.o(i.System_SaveDb) refers to system_config.o(.bss) for .bss
    system_config.o(i.System_TimerPeriod) refers to tem_adc.o(i.Tem_AdcLoop) for Tem_AdcLoop
    system_config.o(i.System_TimerPeriod) refers to rn8302b.o(i.ReadAvol) for ReadAvol
    system_config.o(i.System_TimerPeriod) refers to system_config.o(i.System_Led_Onoff) for System_Led_Onoff
    system_config.o(i.System_TimerPeriod) refers to main.o(i.M26_PowerOn) for M26_PowerOn
    system_config.o(i.System_TimerPeriod) refers to system_config.o(.data) for .data
    system_config.o(i.System_TimerPeriod) refers to system_config.o(.bss) for .bss
    system_config.o(i.System_TimerUpdate) refers to system_config.o(.bss) for .bss
    system_config.o(i.System_TimerUpdate) refers to m2g.o(.bss) for gQuer_M2GManeger
    system_config.o(i.System_TimerUpdate) refers to m2g.o(.data) for reportloopenable
    system_config.o(i.System_TimerUpdate) refers to system_config.o(.data) for .data
    system_config.o(i.Watch_Loop) refers to lcd_rt625181.o(i.Disp_Sig) for Disp_Sig
    system_config.o(i.Watch_Loop) refers to system_config.o(i.Beep_Onoff) for Beep_Onoff
    system_config.o(i.Watch_Loop) refers to system_config.o(i.Switch_Alm) for Switch_Alm
    system_config.o(i.Watch_Loop) refers to system_config.o(i.System_Led_Onoff) for System_Led_Onoff
    system_config.o(i.Watch_Loop) refers to stm32f3xx_hal_gpio.o(i.HAL_GPIO_WritePin) for HAL_GPIO_WritePin
    system_config.o(i.Watch_Loop) refers to stm32f3xx_hal.o(i.HAL_Delay) for HAL_Delay
    system_config.o(i.Watch_Loop) refers to system_config.o(.data) for .data
    system_config.o(i.Watch_Loop) refers to system_config.o(.bss) for .bss
    tem_adc.o(i.EleHandle_Loop) refers to stm32f3xx_hal_tim.o(i.HAL_TIM_Base_Stop_IT) for HAL_TIM_Base_Stop_IT
    tem_adc.o(i.EleHandle_Loop) refers to f2d.o(.text) for __aeabi_f2d
    tem_adc.o(i.EleHandle_Loop) refers to sqrt.o(i.__hardfp_sqrt) for __hardfp_sqrt
    tem_adc.o(i.EleHandle_Loop) refers to d2f.o(.text) for __aeabi_d2f
    tem_adc.o(i.EleHandle_Loop) refers to ddiv.o(.text) for __aeabi_ddiv
    tem_adc.o(i.EleHandle_Loop) refers to dmul.o(.text) for __aeabi_dmul
    tem_adc.o(i.EleHandle_Loop) refers to stm32f3xx_hal_tim.o(i.HAL_TIM_Base_Start_IT) for HAL_TIM_Base_Start_IT
    tem_adc.o(i.EleHandle_Loop) refers to tem_adc.o(.data) for .data
    tem_adc.o(i.EleHandle_Loop) refers to main.o(.bss) for htim2
    tem_adc.o(i.EleHandle_Loop) refers to tem_adc.o(.bss) for .bss
    tem_adc.o(i.GetLeak) refers to f2d.o(.text) for __aeabi_f2d
    tem_adc.o(i.GetLeak) refers to dmul.o(.text) for __aeabi_dmul
    tem_adc.o(i.GetLeak) refers to dadd.o(.text) for __aeabi_dadd
    tem_adc.o(i.GetLeak) refers to d2f.o(.text) for __aeabi_d2f
    tem_adc.o(i.GetLeak) refers to tem_adc.o(.bss) for .bss
    tem_adc.o(i.GetLeak) refers to tem_adc.o(.data) for .data
    tem_adc.o(i.GetLeak) refers to system_config.o(.bss) for gSystem_Info
    tem_adc.o(i.HAL_TIM_PeriodElapsedCallback) refers to tem_adc.o(.data) for .data
    tem_adc.o(i.HAL_TIM_PeriodElapsedCallback) refers to tem_adc.o(.bss) for .bss
    tem_adc.o(i.Leak_Gettemplate) refers to tem_adc.o(.constdata) for .constdata
    tem_adc.o(i.Leak_Gettemplate) refers to tem_adc.o(.data) for .data
    tem_adc.o(i.Tem_AdcInit) refers to stm32f3xx_hal_adc_ex.o(i.HAL_ADC_Start_DMA) for HAL_ADC_Start_DMA
    tem_adc.o(i.Tem_AdcInit) refers to tem_adc.o(.bss) for .bss
    tem_adc.o(i.Tem_AdcInit) refers to main.o(.bss) for hadc1
    tem_adc.o(i.Tem_AdcLoop) refers to tem_adc.o(i.Tem_Gettemplate) for Tem_Gettemplate
    tem_adc.o(i.Tem_AdcLoop) refers to tem_adc.o(i.GetLeak) for GetLeak
    tem_adc.o(i.Tem_AdcLoop) refers to tem_adc.o(.bss) for .bss
    tem_adc.o(i.Tem_AdcLoop) refers to system_config.o(.bss) for gSystem_Info
    tem_adc.o(i.Tem_Gettemplate) refers to tem_adc.o(.constdata) for .constdata
    tem_adc.o(i.Tem_Gettemplate) refers to tem_adc.o(.data) for .data
    rn8302b.o(i.Delay5ms) refers to rn8302b.o(i.Delay1us) for Delay1us
    rn8302b.o(i.Delay_ms) refers to rn8302b.o(i.Delay1us) for Delay1us
    rn8302b.o(i.RN8302B_CalibConfig) refers to rn8302b.o(i.RN8302_CalibrateInit) for RN8302_CalibrateInit
    rn8302b.o(i.RN8302B_CalibConfig) refers to rn8302b.o(i.RN8302B_DCOffset) for RN8302B_DCOffset
    rn8302b.o(i.RN8302B_CalibConfig) refers to rn8302b.o(i.RN8302_CalibrateUGain) for RN8302_CalibrateUGain
    rn8302b.o(i.RN8302B_CalibConfig) refers to rn8302b.o(i.RN8302_CalibrateIGain) for RN8302_CalibrateIGain
    rn8302b.o(i.RN8302B_CalibConfig) refers to rn8302b.o(i.RN8302_CalibrateCurrentOffset) for RN8302_CalibrateCurrentOffset
    rn8302b.o(i.RN8302B_DCOffset) refers to rn8302b.o(i.fnRN8302_Write) for fnRN8302_Write
    rn8302b.o(i.RN8302B_DCOffset) refers to rn8302b.o(i.delay_ms) for delay_ms
    rn8302b.o(i.RN8302B_DCOffset) refers to rn8302b.o(i.fnRN8302_Read) for fnRN8302_Read
    rn8302b.o(i.RN8302B_DCOffset) refers to rn8302b.o(.bss) for .bss
    rn8302b.o(i.RN8302_CalibrateCurrentOffset) refers to rn8302b.o(i.fnRN8302_Read) for fnRN8302_Read
    rn8302b.o(i.RN8302_CalibrateCurrentOffset) refers to rn8302b.o(i.delay_ms) for delay_ms
    rn8302b.o(i.RN8302_CalibrateCurrentOffset) refers to rn8302b.o(i.fnRN8302_Write) for fnRN8302_Write
    rn8302b.o(i.RN8302_CalibrateCurrentOffset) refers to rn8302b.o(.constdata) for .constdata
    rn8302b.o(i.RN8302_CalibrateCurrentOffset) refers to rn8302b.o(.bss) for .bss
    rn8302b.o(i.RN8302_CalibrateIGain) refers to rn8302b.o(i.fnRN8302_Read) for fnRN8302_Read
    rn8302b.o(i.RN8302_CalibrateIGain) refers to dflti.o(.text) for __aeabi_i2d
    rn8302b.o(i.RN8302_CalibrateIGain) refers to ddiv.o(.text) for __aeabi_ddiv
    rn8302b.o(i.RN8302_CalibrateIGain) refers to d2f.o(.text) for __aeabi_d2f
    rn8302b.o(i.RN8302_CalibrateIGain) refers to rn8302b.o(i.fnRN8302_Write) for fnRN8302_Write
    rn8302b.o(i.RN8302_CalibrateIGain) refers to rn8302b.o(.constdata) for .constdata
    rn8302b.o(i.RN8302_CalibrateIGain) refers to rn8302b.o(.bss) for .bss
    rn8302b.o(i.RN8302_CalibrateInit) refers to rn8302b.o(i.fnRN8302_Read) for fnRN8302_Read
    rn8302b.o(i.RN8302_CalibrateInit) refers to rn8302b.o(i.fnRN8302_Write) for fnRN8302_Write
    rn8302b.o(i.RN8302_CalibrateInit) refers to rn8302b.o(i.Delay_ms) for Delay_ms
    rn8302b.o(i.RN8302_CalibrateInit) refers to rn8302b.o(.data) for .data
    rn8302b.o(i.RN8302_CalibrateInit) refers to rn8302b.o(.bss) for .bss
    rn8302b.o(i.RN8302_CalibratePx_PHSL) refers to rn8302b.o(i.fnRN8302_Read) for fnRN8302_Read
    rn8302b.o(i.RN8302_CalibratePx_PHSL) refers to rn8302b.o(i.Delay_ms) for Delay_ms
    rn8302b.o(i.RN8302_CalibratePx_PHSL) refers to dfltui.o(.text) for __aeabi_ui2d
    rn8302b.o(i.RN8302_CalibratePx_PHSL) refers to ddiv.o(.text) for __aeabi_ddiv
    rn8302b.o(i.RN8302_CalibratePx_PHSL) refers to d2f.o(.text) for __aeabi_d2f
    rn8302b.o(i.RN8302_CalibratePx_PHSL) refers to sqrt.o(i.sqrt) for sqrt
    rn8302b.o(i.RN8302_CalibratePx_PHSL) refers to rn8302b.o(i.fnRN8302_Write) for fnRN8302_Write
    rn8302b.o(i.RN8302_CalibratePx_PHSL) refers to rn8302b.o(.constdata) for .constdata
    rn8302b.o(i.RN8302_CalibratePx_PHSL) refers to rn8302b.o(.bss) for .bss
    rn8302b.o(i.RN8302_CalibrateUGain) refers to rn8302b.o(i.fnRN8302_Read) for fnRN8302_Read
    rn8302b.o(i.RN8302_CalibrateUGain) refers to dflti.o(.text) for __aeabi_i2d
    rn8302b.o(i.RN8302_CalibrateUGain) refers to ddiv.o(.text) for __aeabi_ddiv
    rn8302b.o(i.RN8302_CalibrateUGain) refers to d2f.o(.text) for __aeabi_d2f
    rn8302b.o(i.RN8302_CalibrateUGain) refers to rn8302b.o(i.fnRN8302_Write) for fnRN8302_Write
    rn8302b.o(i.RN8302_CalibrateUGain) refers to rn8302b.o(.constdata) for .constdata
    rn8302b.o(i.RN8302_CalibrateUGain) refers to rn8302b.o(.data) for .data
    rn8302b.o(i.RN8302_CalibrateUGain) refers to rn8302b.o(.bss) for .bss
    rn8302b.o(i.RN830B_SoftInit) refers to memseta.o(.text) for __aeabi_memclr4
    rn8302b.o(i.RN830B_SoftInit) refers to stm32f3xx_hal_gpio.o(i.HAL_GPIO_Init) for HAL_GPIO_Init
    rn8302b.o(i.RN830B_SoftInit) refers to stm32f3xx_hal_gpio.o(i.HAL_GPIO_WritePin) for HAL_GPIO_WritePin
    rn8302b.o(i.RN830B_SoftInit) refers to stm32f3xx_hal_cortex.o(i.HAL_NVIC_SetPriority) for HAL_NVIC_SetPriority
    rn8302b.o(i.ReadAvol) refers to rn8302b.o(i.fnRN8302_Read) for fnRN8302_Read
    rn8302b.o(i.ReadAvol) refers to dfltui.o(.text) for __aeabi_ui2d
    rn8302b.o(i.ReadAvol) refers to ddiv.o(.text) for __aeabi_ddiv
    rn8302b.o(i.ReadAvol) refers to d2f.o(.text) for __aeabi_d2f
    rn8302b.o(i.ReadAvol) refers to rn8302b.o(.bss) for .bss
    rn8302b.o(i.ReadAvol) refers to system_config.o(.bss) for gSystem_Info
    rn8302b.o(i.TestDevice) refers to rn8302b.o(i.fnRN8302_Read) for fnRN8302_Read
    rn8302b.o(i.TestDevice) refers to rn8302b.o(.data) for .data
    rn8302b.o(i.delay_ms) refers to rn8302b.o(i.fnDelay2us) for fnDelay2us
    rn8302b.o(i.fnDFConver_Bcd16To16) refers to rn8302b.o(i.fnHexToBcd_u16) for fnHexToBcd_u16
    rn8302b.o(i.fnDFConver_Bcd32To32) refers to rn8302b.o(i.fnHexToBcd_u32) for fnHexToBcd_u32
    rn8302b.o(i.fnDFConver_Hex32ToDF09) refers to rn8302b.o(i.fnHexToBcd_u32) for fnHexToBcd_u32
    rn8302b.o(i.fnDl645Energy_Exec) refers to rn8302b.o(.bss) for .bss
    rn8302b.o(i.fnDl645Front_Exec) refers to rn8302b.o(i.fnRN8302_Read) for fnRN8302_Read
    rn8302b.o(i.fnDl645Front_Exec) refers to rn8302b.o(i.fnHexToBcd_u16) for fnHexToBcd_u16
    rn8302b.o(i.fnDl645Front_Exec) refers to rn8302b.o(i.fnDFConver_Hex32ToDF09) for fnDFConver_Hex32ToDF09
    rn8302b.o(i.fnDl645Front_Exec) refers to f2d.o(.text) for __aeabi_f2d
    rn8302b.o(i.fnDl645Front_Exec) refers to sqrt.o(i.sqrt) for sqrt
    rn8302b.o(i.fnDl645Front_Exec) refers to dflti.o(.text) for __aeabi_i2d
    rn8302b.o(i.fnDl645Front_Exec) refers to dmul.o(.text) for __aeabi_dmul
    rn8302b.o(i.fnDl645Front_Exec) refers to ddiv.o(.text) for __aeabi_ddiv
    rn8302b.o(i.fnDl645Front_Exec) refers to dfixi.o(.text) for __aeabi_d2iz
    rn8302b.o(i.fnDl645Front_Exec) refers to rn8302b.o(i.fnDFConver_Bcd16To16) for fnDFConver_Bcd16To16
    rn8302b.o(i.fnDl645Front_Exec) refers to rn8302b.o(i.fnDFConver_Bcd32To32) for fnDFConver_Bcd32To32
    rn8302b.o(i.fnDl645Front_Exec) refers to rn8302b.o(.bss) for .bss
    rn8302b.o(i.fnRN8302_Init) refers to rn8302b.o(i.fnRN8302_Write) for fnRN8302_Write
    rn8302b.o(i.fnRN8302_Init) refers to rn8302b.o(i.Delay5ms) for Delay5ms
    rn8302b.o(i.fnRN8302_Init) refers to rn8302b.o(.bss) for .bss
    rn8302b.o(i.fnRN8302_Read) refers to stm32f3xx_hal_gpio.o(i.HAL_GPIO_WritePin) for HAL_GPIO_WritePin
    rn8302b.o(i.fnRN8302_Read) refers to rn8302b.o(i.fnDelay2us) for fnDelay2us
    rn8302b.o(i.fnRN8302_Read) refers to rn8302b.o(i.fnSpi2_WriteByte) for fnSpi2_WriteByte
    rn8302b.o(i.fnRN8302_Read) refers to rn8302b.o(i.fnSpi2_ReadByte) for fnSpi2_ReadByte
    rn8302b.o(i.fnRN8302_Read) refers to rn8302b.o(.data) for .data
    rn8302b.o(i.fnRN8302_Write) refers to stm32f3xx_hal_gpio.o(i.HAL_GPIO_WritePin) for HAL_GPIO_WritePin
    rn8302b.o(i.fnRN8302_Write) refers to rn8302b.o(i.fnSpi2_WriteByte) for fnSpi2_WriteByte
    rn8302b.o(i.fnRN8302_Write) refers to rn8302b.o(i.fnSpi2_ReadByte) for fnSpi2_ReadByte
    rn8302b.o(i.fnRN8302_Write) refers to rn8302b.o(i.fnDelay2us) for fnDelay2us
    rn8302b.o(i.fnSpi2_ReadByte) refers to stm32f3xx_hal_gpio.o(i.HAL_GPIO_WritePin) for HAL_GPIO_WritePin
    rn8302b.o(i.fnSpi2_ReadByte) refers to rn8302b.o(i.fnDelay2us) for fnDelay2us
    rn8302b.o(i.fnSpi2_ReadByte) refers to stm32f3xx_hal_gpio.o(i.HAL_GPIO_ReadPin) for HAL_GPIO_ReadPin
    rn8302b.o(i.fnSpi2_WriteByte) refers to stm32f3xx_hal_gpio.o(i.HAL_GPIO_WritePin) for HAL_GPIO_WritePin
    rn8302b.o(i.fnSpi2_WriteByte) refers to rn8302b.o(i.fnDelay2us) for fnDelay2us
    rn8302b.o(i.fnStamp_Through) refers to rn8302b.o(.data) for .data
    lct_rt623832.o(i.assign_value_address) refers to lct_rt623832.o(.bss) for .bss
    lct_rt623832.o(i.display_ram_byte) refers to ht1622x.o(i.ht1622x_send_data) for ht1622x_send_data
    lct_rt623832.o(i.display_ram_byte) refers to lct_rt623832.o(.bss) for .bss
    lct_rt623832.o(i.get_lcd_ram_byte) refers to lct_rt623832.o(.bss) for .bss
    lct_rt623832.o(i.is_lcd_fast_mode) refers to lct_rt623832.o(.bss) for .bss
    lct_rt623832.o(i.is_skip_enable) refers to lct_rt623832.o(.bss) for .bss
    lct_rt623832.o(i.rt623832_init) refers to memseta.o(.text) for __aeabi_memclr
    lct_rt623832.o(i.rt623832_init) refers to lct_rt623832.o(i.assign_value_address) for assign_value_address
    lct_rt623832.o(i.rt623832_init) refers to ht1622x.o(i.ht1622x_init) for ht1622x_init
    lct_rt623832.o(i.rt623832_init) refers to ht1622x.o(i.ht1622x_display_all) for ht1622x_display_all
    lct_rt623832.o(i.rt623832_init) refers to lct_rt623832.o(i.show_logo) for show_logo
    lct_rt623832.o(i.rt623832_init) refers to lct_rt623832.o(i.show_alarms) for show_alarms
    lct_rt623832.o(i.rt623832_init) refers to lct_rt623832.o(.bss) for .bss
    lct_rt623832.o(i.set_index_of_screen_node) refers to lct_rt623832.o(.bss) for .bss
    lct_rt623832.o(i.set_lcd_show_mode) refers to lct_rt623832.o(.bss) for .bss
    lct_rt623832.o(i.show_AudoMode) refers to lct_rt623832.o(i.display_ram_byte) for display_ram_byte
    lct_rt623832.o(i.show_AudoMode) refers to lct_rt623832.o(.bss) for .bss
    lct_rt623832.o(i.show_alarms) refers to lct_rt623832.o(i.display_ram_byte) for display_ram_byte
    lct_rt623832.o(i.show_alarms) refers to lct_rt623832.o(.bss) for .bss
    lct_rt623832.o(i.show_letter_a) refers to lct_rt623832.o(i.display_ram_byte) for display_ram_byte
    lct_rt623832.o(i.show_letter_a) refers to lct_rt623832.o(.bss) for .bss
    lct_rt623832.o(i.show_letter_abc) refers to lct_rt623832.o(i.display_ram_byte) for display_ram_byte
    lct_rt623832.o(i.show_letter_abc) refers to lct_rt623832.o(.bss) for .bss
    lct_rt623832.o(i.show_letter_acb) refers to lct_rt623832.o(i.display_ram_byte) for display_ram_byte
    lct_rt623832.o(i.show_letter_acb) refers to lct_rt623832.o(.bss) for .bss
    lct_rt623832.o(i.show_letter_addr) refers to lct_rt623832.o(i.display_ram_byte) for display_ram_byte
    lct_rt623832.o(i.show_letter_addr) refers to lct_rt623832.o(.bss) for .bss
    lct_rt623832.o(i.show_letter_b) refers to lct_rt623832.o(i.display_ram_byte) for display_ram_byte
    lct_rt623832.o(i.show_letter_b) refers to lct_rt623832.o(.bss) for .bss
    lct_rt623832.o(i.show_letter_c) refers to lct_rt623832.o(i.display_ram_byte) for display_ram_byte
    lct_rt623832.o(i.show_letter_c) refers to lct_rt623832.o(.bss) for .bss
    lct_rt623832.o(i.show_letter_in_line1) refers to lct_rt623832.o(i.display_ram_byte) for display_ram_byte
    lct_rt623832.o(i.show_letter_in_line1) refers to lct_rt623832.o(.bss) for .bss
    lct_rt623832.o(i.show_letter_in_line2) refers to lct_rt623832.o(i.display_ram_byte) for display_ram_byte
    lct_rt623832.o(i.show_letter_in_line2) refers to lct_rt623832.o(.bss) for .bss
    lct_rt623832.o(i.show_letter_v) refers to lct_rt623832.o(i.display_ram_byte) for display_ram_byte
    lct_rt623832.o(i.show_letter_v) refers to lct_rt623832.o(.bss) for .bss
    lct_rt623832.o(i.show_logo) refers to lct_rt623832.o(i.display_ram_byte) for display_ram_byte
    lct_rt623832.o(i.show_logo) refers to lct_rt623832.o(.bss) for .bss
    lct_rt623832.o(i.show_number_in_line1) refers to lct_rt623832.o(i.display_ram_byte) for display_ram_byte
    lct_rt623832.o(i.show_number_in_line1) refers to lct_rt623832.o(.bss) for .bss
    lct_rt623832.o(i.show_number_in_line2) refers to lct_rt623832.o(i.display_ram_byte) for display_ram_byte
    lct_rt623832.o(i.show_number_in_line2) refers to lct_rt623832.o(.bss) for .bss
    lct_rt623832.o(i.show_units) refers to lct_rt623832.o(i.display_ram_byte) for display_ram_byte
    lct_rt623832.o(i.show_units) refers to lct_rt623832.o(.bss) for .bss
    lcd_rt625181.o(i.Disp_ABC) refers to lcd_rt625181.o(i.Disp_Ram) for Disp_Ram
    lcd_rt625181.o(i.Disp_ABC) refers to lcd_rt625181.o(.bss) for .bss
    lcd_rt625181.o(i.Disp_Number1) refers to lcd_rt625181.o(i.Disp_Ram) for Disp_Ram
    lcd_rt625181.o(i.Disp_Number1) refers to system_config.o(.bss) for gSystem_Info
    lcd_rt625181.o(i.Disp_Number1) refers to lcd_rt625181.o(.constdata) for .constdata
    lcd_rt625181.o(i.Disp_Number1) refers to lcd_rt625181.o(.bss) for .bss
    lcd_rt625181.o(i.Disp_Number2) refers to lcd_rt625181.o(i.Disp_Ram) for Disp_Ram
    lcd_rt625181.o(i.Disp_Number2) refers to system_config.o(.bss) for gSystem_Info
    lcd_rt625181.o(i.Disp_Number2) refers to lcd_rt625181.o(.constdata) for .constdata
    lcd_rt625181.o(i.Disp_Number2) refers to lcd_rt625181.o(.bss) for .bss
    lcd_rt625181.o(i.Disp_Number3) refers to lcd_rt625181.o(i.Disp_Ram) for Disp_Ram
    lcd_rt625181.o(i.Disp_Number3) refers to system_config.o(.bss) for gSystem_Info
    lcd_rt625181.o(i.Disp_Number3) refers to lcd_rt625181.o(.constdata) for .constdata
    lcd_rt625181.o(i.Disp_Number3) refers to lcd_rt625181.o(.bss) for .bss
    lcd_rt625181.o(i.Disp_Number4) refers to lcd_rt625181.o(i.Disp_Ram) for Disp_Ram
    lcd_rt625181.o(i.Disp_Number4) refers to system_config.o(.bss) for gSystem_Info
    lcd_rt625181.o(i.Disp_Number4) refers to lcd_rt625181.o(.constdata) for .constdata
    lcd_rt625181.o(i.Disp_Number4) refers to lcd_rt625181.o(.bss) for .bss
    lcd_rt625181.o(i.Disp_Number5) refers to lcd_rt625181.o(i.Disp_Ram) for Disp_Ram
    lcd_rt625181.o(i.Disp_Number5) refers to system_config.o(.bss) for gEnternmodeenable
    lcd_rt625181.o(i.Disp_Number5) refers to lcd_rt625181.o(.constdata) for .constdata
    lcd_rt625181.o(i.Disp_Number5) refers to lcd_rt625181.o(.bss) for .bss
    lcd_rt625181.o(i.Disp_Parame) refers to memseta.o(.text) for __aeabi_memclr
    lcd_rt625181.o(i.Disp_Parame) refers to lcd_rt625181.o(.bss) for .bss
    lcd_rt625181.o(i.Disp_Ram) refers to ht1622x.o(i.ht1622x_send_data) for ht1622x_send_data
    lcd_rt625181.o(i.Disp_Sig) refers to lcd_rt625181.o(i.Disp_Ram) for Disp_Ram
    lcd_rt625181.o(i.Disp_Sig) refers to lcd_rt625181.o(.bss) for .bss
    lcd_rt625181.o(i.Disp_Temper) refers to f2d.o(.text) for __aeabi_f2d
    lcd_rt625181.o(i.Disp_Temper) refers to printfa.o(i.__0sprintf) for __2sprintf
    lcd_rt625181.o(i.Disp_Temper) refers to lcd_rt625181.o(i.Disp_Number1) for Disp_Number1
    lcd_rt625181.o(i.Disp_Temper_Unit) refers to lcd_rt625181.o(i.Disp_Ram) for Disp_Ram
    lcd_rt625181.o(i.Disp_Temper_Unit) refers to lcd_rt625181.o(.bss) for .bss
    lcd_rt625181.o(i.Disp_Unit) refers to lcd_rt625181.o(i.Disp_Ram) for Disp_Ram
    lcd_rt625181.o(i.Disp_Unit) refers to lcd_rt625181.o(.bss) for .bss
    lcd_rt625181.o(i.LCD_PowerOn) refers to memseta.o(.text) for __aeabi_memclr4
    lcd_rt625181.o(i.LCD_PowerOn) refers to stm32f3xx_hal_gpio.o(i.HAL_GPIO_Init) for HAL_GPIO_Init
    lcd_rt625181.o(i.LCD_PowerOn) refers to stm32f3xx_hal_gpio.o(i.HAL_GPIO_WritePin) for HAL_GPIO_WritePin
    lcd_rt625181.o(i.dispLCD_Loop) refers to lcd_rt625181.o(i.Disp_ABC) for Disp_ABC
    lcd_rt625181.o(i.dispLCD_Loop) refers to lcd_rt625181.o(i.Disp_Temper) for Disp_Temper
    lcd_rt625181.o(i.dispLCD_Loop) refers to lcd_rt625181.o(i.dispMA2) for dispMA2
    lcd_rt625181.o(i.dispLCD_Loop) refers to lcd_rt625181.o(i.dispMA1) for dispMA1
    lcd_rt625181.o(i.dispLCD_Loop) refers to lcd_rt625181.o(i.dispVol) for dispVol
    lcd_rt625181.o(i.dispLCD_Loop) refers to lcd_rt625181.o(i.Disp_Ram) for Disp_Ram
    lcd_rt625181.o(i.dispLCD_Loop) refers to system_config.o(i.Watch_Loop) for Watch_Loop
    lcd_rt625181.o(i.dispLCD_Loop) refers to lcd_rt625181.o(i.dispPassword) for dispPassword
    lcd_rt625181.o(i.dispLCD_Loop) refers to lcd_rt625181.o(.data) for .data
    lcd_rt625181.o(i.dispLCD_Loop) refers to system_config.o(.bss) for gSystem_Info
    lcd_rt625181.o(i.dispLCD_Loop) refers to system_config.o(.data) for enternfactormode
    lcd_rt625181.o(i.dispLCD_Loop) refers to lcd_rt625181.o(.bss) for .bss
    lcd_rt625181.o(i.dispMA1) refers to f2d.o(.text) for __aeabi_f2d
    lcd_rt625181.o(i.dispMA1) refers to printfa.o(i.__0sprintf) for __2sprintf
    lcd_rt625181.o(i.dispMA1) refers to lcd_rt625181.o(i.Disp_Number2) for Disp_Number2
    lcd_rt625181.o(i.dispMA2) refers to f2d.o(.text) for __aeabi_f2d
    lcd_rt625181.o(i.dispMA2) refers to printfa.o(i.__0sprintf) for __2sprintf
    lcd_rt625181.o(i.dispMA2) refers to lcd_rt625181.o(i.Disp_Number3) for Disp_Number3
    lcd_rt625181.o(i.dispPassword) refers to f2d.o(.text) for __aeabi_f2d
    lcd_rt625181.o(i.dispPassword) refers to printfa.o(i.__0sprintf) for __2sprintf
    lcd_rt625181.o(i.dispPassword) refers to lcd_rt625181.o(i.Disp_Number5) for Disp_Number5
    lcd_rt625181.o(i.dispPassword) refers to lcd_rt625181.o(i.Disp_Ram) for Disp_Ram
    lcd_rt625181.o(i.dispPassword) refers to lcd_rt625181.o(.bss) for .bss
    lcd_rt625181.o(i.dispPassword) refers to system_config.o(.data) for password
    lcd_rt625181.o(i.dispPassword) refers to system_config.o(.bss) for gEnternmodeenable
    lcd_rt625181.o(i.dispPower) refers to f2d.o(.text) for __aeabi_f2d
    lcd_rt625181.o(i.dispPower) refers to printfa.o(i.__0sprintf) for __2sprintf
    lcd_rt625181.o(i.dispPower) refers to lcd_rt625181.o(i.Disp_Number5) for Disp_Number5
    lcd_rt625181.o(i.dispSystick) refers to lcd_rt625181.o(.data) for .data
    lcd_rt625181.o(i.dispVol) refers to f2d.o(.text) for __aeabi_f2d
    lcd_rt625181.o(i.dispVol) refers to printfa.o(i.__0sprintf) for __2sprintf
    lcd_rt625181.o(i.dispVol) refers to lcd_rt625181.o(i.Disp_Number4) for Disp_Number4
    lcd_rt625181.o(i.disp_Flag) refers to lcd_rt625181.o(i.Disp_Ram) for Disp_Ram
    lcd_rt625181.o(i.disp_Flag) refers to lcd_rt625181.o(.bss) for .bss
    lcd_rt625181.o(i.disp_MinorStatus) refers to lcd_rt625181.o(i.Disp_Sig) for Disp_Sig
    lcd_rt625181.o(i.disp_MinorStatus) refers to rn8302b.o(.bss) for gRN_Info
    lcd_rt625181.o(i.disp_Power2) refers to lcd_rt625181.o(i.Disp_Number5) for Disp_Number5
    lcd_rt625181.o(i.disp_Power2) refers to system_config.o(.data) for password
    lcd_rt625181.o(i.disp_init) refers to ht1622x.o(i.ht1622x_init) for ht1622x_init
    lcd_rt625181.o(i.disp_init) refers to ht1622x.o(i.ht1622x_display_all) for ht1622x_display_all
    lcd_rt625181.o(i.disp_init) refers to lcd_rt625181.o(i.Disp_Ram) for Disp_Ram
    lcd_rt625181.o(i.disp_init) refers to lcd_rt625181.o(i.disp_Flag) for disp_Flag
    ht1622x.o(i.ht1622XX_send_1high) refers to ht1622x.o(i.delay_us) for delay_us
    ht1622x.o(i.ht1622XX_send_1high) refers to ht1622x.o(i.ht1622_data_out) for ht1622_data_out
    ht1622x.o(i.ht1622XX_send_1high) refers to ht1622x.o(i.ht1622_wr_out) for ht1622_wr_out
    ht1622x.o(i.ht1622_cs_out) refers to stm32f3xx_hal_gpio.o(i.HAL_GPIO_WritePin) for HAL_GPIO_WritePin
    ht1622x.o(i.ht1622_data_in) refers to memseta.o(.text) for __aeabi_memclr4
    ht1622x.o(i.ht1622_data_in) refers to stm32f3xx_hal_gpio.o(i.HAL_GPIO_Init) for HAL_GPIO_Init
    ht1622x.o(i.ht1622_data_in) refers to stm32f3xx_hal_gpio.o(i.HAL_GPIO_ReadPin) for HAL_GPIO_ReadPin
    ht1622x.o(i.ht1622_data_out) refers to memseta.o(.text) for __aeabi_memclr4
    ht1622x.o(i.ht1622_data_out) refers to stm32f3xx_hal_gpio.o(i.HAL_GPIO_Init) for HAL_GPIO_Init
    ht1622x.o(i.ht1622_data_out) refers to stm32f3xx_hal_gpio.o(i.HAL_GPIO_WritePin) for HAL_GPIO_WritePin
    ht1622x.o(i.ht1622_gpio_config) refers to memseta.o(.text) for __aeabi_memclr4
    ht1622x.o(i.ht1622_gpio_config) refers to stm32f3xx_hal_gpio.o(i.HAL_GPIO_Init) for HAL_GPIO_Init
    ht1622x.o(i.ht1622_gpio_config) refers to stm32f3xx_hal_gpio.o(i.HAL_GPIO_WritePin) for HAL_GPIO_WritePin
    ht1622x.o(i.ht1622_wr_out) refers to stm32f3xx_hal_gpio.o(i.HAL_GPIO_WritePin) for HAL_GPIO_WritePin
    ht1622x.o(i.ht1622x_buzz) refers to ht1622x.o(i.ht1622x_send_cmd) for ht1622x_send_cmd
    ht1622x.o(i.ht1622x_display_all) refers to ht1622x.o(i.ht1622_cs_out) for ht1622_cs_out
    ht1622x.o(i.ht1622x_display_all) refers to ht1622x.o(i.ht1622x_send_bits) for ht1622x_send_bits
    ht1622x.o(i.ht1622x_init) refers to ht1622x.o(i.ht1622_gpio_config) for ht1622_gpio_config
    ht1622x.o(i.ht1622x_init) refers to ht1622x.o(i.ht1622x_send_cmd) for ht1622x_send_cmd
    ht1622x.o(i.ht1622x_send_bits) refers to ht1622x.o(i.ht1622_wr_out) for ht1622_wr_out
    ht1622x.o(i.ht1622x_send_bits) refers to ht1622x.o(i.ht1622_data_out) for ht1622_data_out
    ht1622x.o(i.ht1622x_send_bits) refers to ht1622x.o(i.delay_us) for delay_us
    ht1622x.o(i.ht1622x_send_cmd) refers to ht1622x.o(i.ht1622_cs_out) for ht1622_cs_out
    ht1622x.o(i.ht1622x_send_cmd) refers to ht1622x.o(i.delay_us) for delay_us
    ht1622x.o(i.ht1622x_send_cmd) refers to ht1622x.o(i.ht1622x_send_bits) for ht1622x_send_bits
    ht1622x.o(i.ht1622x_send_data) refers to ht1622x.o(i.ht1622_cs_out) for ht1622_cs_out
    ht1622x.o(i.ht1622x_send_data) refers to ht1622x.o(i.delay_us) for delay_us
    ht1622x.o(i.ht1622x_send_data) refers to ht1622x.o(i.ht1622x_send_bits) for ht1622x_send_bits
    stm32f3xx_hal_adc_ex.o(i.ADC_ConversionStop) refers to stm32f3xx_hal.o(i.HAL_GetTick) for HAL_GetTick
    stm32f3xx_hal_adc_ex.o(i.ADC_DMAConvCplt) refers to stm32f3xx_hal_adc.o(i.HAL_ADC_ConvCpltCallback) for HAL_ADC_ConvCpltCallback
    stm32f3xx_hal_adc_ex.o(i.ADC_DMAError) refers to stm32f3xx_hal_adc.o(i.HAL_ADC_ErrorCallback) for HAL_ADC_ErrorCallback
    stm32f3xx_hal_adc_ex.o(i.ADC_DMAHalfConvCplt) refers to stm32f3xx_hal_adc.o(i.HAL_ADC_ConvHalfCpltCallback) for HAL_ADC_ConvHalfCpltCallback
    stm32f3xx_hal_adc_ex.o(i.ADC_Disable) refers to stm32f3xx_hal.o(i.HAL_GetTick) for HAL_GetTick
    stm32f3xx_hal_adc_ex.o(i.ADC_Enable) refers to stm32f3xx_hal.o(i.HAL_GetTick) for HAL_GetTick
    stm32f3xx_hal_adc_ex.o(i.HAL_ADCEx_Calibration_Start) refers to stm32f3xx_hal_adc_ex.o(i.ADC_Disable) for ADC_Disable
    stm32f3xx_hal_adc_ex.o(i.HAL_ADCEx_Calibration_Start) refers to stm32f3xx_hal.o(i.HAL_GetTick) for HAL_GetTick
    stm32f3xx_hal_adc_ex.o(i.HAL_ADCEx_InjectedConfigChannel) refers to system_stm32f3xx.o(.data) for SystemCoreClock
    stm32f3xx_hal_adc_ex.o(i.HAL_ADCEx_InjectedPollForConversion) refers to stm32f3xx_hal.o(i.HAL_GetTick) for HAL_GetTick
    stm32f3xx_hal_adc_ex.o(i.HAL_ADCEx_InjectedStart) refers to stm32f3xx_hal_adc_ex.o(i.ADC_Enable) for ADC_Enable
    stm32f3xx_hal_adc_ex.o(i.HAL_ADCEx_InjectedStart_IT) refers to stm32f3xx_hal_adc_ex.o(i.ADC_Enable) for ADC_Enable
    stm32f3xx_hal_adc_ex.o(i.HAL_ADCEx_InjectedStop) refers to stm32f3xx_hal_adc_ex.o(i.ADC_ConversionStop) for ADC_ConversionStop
    stm32f3xx_hal_adc_ex.o(i.HAL_ADCEx_InjectedStop) refers to stm32f3xx_hal_adc_ex.o(i.ADC_Disable) for ADC_Disable
    stm32f3xx_hal_adc_ex.o(i.HAL_ADCEx_InjectedStop_IT) refers to stm32f3xx_hal_adc_ex.o(i.ADC_ConversionStop) for ADC_ConversionStop
    stm32f3xx_hal_adc_ex.o(i.HAL_ADCEx_InjectedStop_IT) refers to stm32f3xx_hal_adc_ex.o(i.ADC_Disable) for ADC_Disable
    stm32f3xx_hal_adc_ex.o(i.HAL_ADCEx_MultiModeStart_DMA) refers to stm32f3xx_hal_adc_ex.o(i.ADC_Enable) for ADC_Enable
    stm32f3xx_hal_adc_ex.o(i.HAL_ADCEx_MultiModeStart_DMA) refers to stm32f3xx_hal_dma.o(i.HAL_DMA_Start_IT) for HAL_DMA_Start_IT
    stm32f3xx_hal_adc_ex.o(i.HAL_ADCEx_MultiModeStart_DMA) refers to stm32f3xx_hal_adc_ex.o(i.ADC_DMAConvCplt) for ADC_DMAConvCplt
    stm32f3xx_hal_adc_ex.o(i.HAL_ADCEx_MultiModeStart_DMA) refers to stm32f3xx_hal_adc_ex.o(i.ADC_DMAHalfConvCplt) for ADC_DMAHalfConvCplt
    stm32f3xx_hal_adc_ex.o(i.HAL_ADCEx_MultiModeStart_DMA) refers to stm32f3xx_hal_adc_ex.o(i.ADC_DMAError) for ADC_DMAError
    stm32f3xx_hal_adc_ex.o(i.HAL_ADCEx_MultiModeStop_DMA) refers to stm32f3xx_hal_adc_ex.o(i.ADC_ConversionStop) for ADC_ConversionStop
    stm32f3xx_hal_adc_ex.o(i.HAL_ADCEx_MultiModeStop_DMA) refers to stm32f3xx_hal.o(i.HAL_GetTick) for HAL_GetTick
    stm32f3xx_hal_adc_ex.o(i.HAL_ADCEx_MultiModeStop_DMA) refers to stm32f3xx_hal_dma.o(i.HAL_DMA_Abort) for HAL_DMA_Abort
    stm32f3xx_hal_adc_ex.o(i.HAL_ADCEx_MultiModeStop_DMA) refers to stm32f3xx_hal_adc_ex.o(i.ADC_Disable) for ADC_Disable
    stm32f3xx_hal_adc_ex.o(i.HAL_ADCEx_RegularMultiModeStop_DMA) refers to stm32f3xx_hal_adc_ex.o(i.ADC_ConversionStop) for ADC_ConversionStop
    stm32f3xx_hal_adc_ex.o(i.HAL_ADCEx_RegularMultiModeStop_DMA) refers to stm32f3xx_hal.o(i.HAL_GetTick) for HAL_GetTick
    stm32f3xx_hal_adc_ex.o(i.HAL_ADCEx_RegularMultiModeStop_DMA) refers to stm32f3xx_hal_dma.o(i.HAL_DMA_Abort) for HAL_DMA_Abort
    stm32f3xx_hal_adc_ex.o(i.HAL_ADCEx_RegularMultiModeStop_DMA) refers to stm32f3xx_hal_adc_ex.o(i.ADC_Disable) for ADC_Disable
    stm32f3xx_hal_adc_ex.o(i.HAL_ADCEx_RegularStop) refers to stm32f3xx_hal_adc_ex.o(i.ADC_ConversionStop) for ADC_ConversionStop
    stm32f3xx_hal_adc_ex.o(i.HAL_ADCEx_RegularStop) refers to stm32f3xx_hal_adc_ex.o(i.ADC_Disable) for ADC_Disable
    stm32f3xx_hal_adc_ex.o(i.HAL_ADCEx_RegularStop_DMA) refers to stm32f3xx_hal_adc_ex.o(i.ADC_ConversionStop) for ADC_ConversionStop
    stm32f3xx_hal_adc_ex.o(i.HAL_ADCEx_RegularStop_DMA) refers to stm32f3xx_hal_dma.o(i.HAL_DMA_Abort) for HAL_DMA_Abort
    stm32f3xx_hal_adc_ex.o(i.HAL_ADCEx_RegularStop_DMA) refers to stm32f3xx_hal_adc_ex.o(i.ADC_Disable) for ADC_Disable
    stm32f3xx_hal_adc_ex.o(i.HAL_ADCEx_RegularStop_IT) refers to stm32f3xx_hal_adc_ex.o(i.ADC_ConversionStop) for ADC_ConversionStop
    stm32f3xx_hal_adc_ex.o(i.HAL_ADCEx_RegularStop_IT) refers to stm32f3xx_hal_adc_ex.o(i.ADC_Disable) for ADC_Disable
    stm32f3xx_hal_adc_ex.o(i.HAL_ADC_ConfigChannel) refers to system_stm32f3xx.o(.data) for SystemCoreClock
    stm32f3xx_hal_adc_ex.o(i.HAL_ADC_DeInit) refers to stm32f3xx_hal_adc_ex.o(i.ADC_ConversionStop) for ADC_ConversionStop
    stm32f3xx_hal_adc_ex.o(i.HAL_ADC_DeInit) refers to stm32f3xx_hal_adc_ex.o(i.ADC_Disable) for ADC_Disable
    stm32f3xx_hal_adc_ex.o(i.HAL_ADC_DeInit) refers to stm32f3xx_hal_msp.o(i.HAL_ADC_MspDeInit) for HAL_ADC_MspDeInit
    stm32f3xx_hal_adc_ex.o(i.HAL_ADC_IRQHandler) refers to stm32f3xx_hal_adc.o(i.HAL_ADC_ConvCpltCallback) for HAL_ADC_ConvCpltCallback
    stm32f3xx_hal_adc_ex.o(i.HAL_ADC_IRQHandler) refers to stm32f3xx_hal_adc_ex.o(i.HAL_ADCEx_InjectedConvCpltCallback) for HAL_ADCEx_InjectedConvCpltCallback
    stm32f3xx_hal_adc_ex.o(i.HAL_ADC_IRQHandler) refers to stm32f3xx_hal_adc.o(i.HAL_ADC_LevelOutOfWindowCallback) for HAL_ADC_LevelOutOfWindowCallback
    stm32f3xx_hal_adc_ex.o(i.HAL_ADC_IRQHandler) refers to stm32f3xx_hal_adc_ex.o(i.HAL_ADCEx_LevelOutOfWindow2Callback) for HAL_ADCEx_LevelOutOfWindow2Callback
    stm32f3xx_hal_adc_ex.o(i.HAL_ADC_IRQHandler) refers to stm32f3xx_hal_adc_ex.o(i.HAL_ADCEx_LevelOutOfWindow3Callback) for HAL_ADCEx_LevelOutOfWindow3Callback
    stm32f3xx_hal_adc_ex.o(i.HAL_ADC_IRQHandler) refers to stm32f3xx_hal_adc.o(i.HAL_ADC_ErrorCallback) for HAL_ADC_ErrorCallback
    stm32f3xx_hal_adc_ex.o(i.HAL_ADC_IRQHandler) refers to stm32f3xx_hal_adc_ex.o(i.HAL_ADCEx_InjectedQueueOverflowCallback) for HAL_ADCEx_InjectedQueueOverflowCallback
    stm32f3xx_hal_adc_ex.o(i.HAL_ADC_Init) refers to stm32f3xx_hal_msp.o(i.HAL_ADC_MspInit) for HAL_ADC_MspInit
    stm32f3xx_hal_adc_ex.o(i.HAL_ADC_Init) refers to stm32f3xx_hal_adc_ex.o(i.ADC_Disable) for ADC_Disable
    stm32f3xx_hal_adc_ex.o(i.HAL_ADC_Init) refers to system_stm32f3xx.o(.data) for SystemCoreClock
    stm32f3xx_hal_adc_ex.o(i.HAL_ADC_PollForConversion) refers to stm32f3xx_hal.o(i.HAL_GetTick) for HAL_GetTick
    stm32f3xx_hal_adc_ex.o(i.HAL_ADC_PollForEvent) refers to stm32f3xx_hal.o(i.HAL_GetTick) for HAL_GetTick
    stm32f3xx_hal_adc_ex.o(i.HAL_ADC_Start) refers to stm32f3xx_hal_adc_ex.o(i.ADC_Enable) for ADC_Enable
    stm32f3xx_hal_adc_ex.o(i.HAL_ADC_Start_DMA) refers to stm32f3xx_hal_adc_ex.o(i.ADC_Enable) for ADC_Enable
    stm32f3xx_hal_adc_ex.o(i.HAL_ADC_Start_DMA) refers to stm32f3xx_hal_dma.o(i.HAL_DMA_Start_IT) for HAL_DMA_Start_IT
    stm32f3xx_hal_adc_ex.o(i.HAL_ADC_Start_DMA) refers to stm32f3xx_hal_adc_ex.o(i.ADC_DMAConvCplt) for ADC_DMAConvCplt
    stm32f3xx_hal_adc_ex.o(i.HAL_ADC_Start_DMA) refers to stm32f3xx_hal_adc_ex.o(i.ADC_DMAHalfConvCplt) for ADC_DMAHalfConvCplt
    stm32f3xx_hal_adc_ex.o(i.HAL_ADC_Start_DMA) refers to stm32f3xx_hal_adc_ex.o(i.ADC_DMAError) for ADC_DMAError
    stm32f3xx_hal_adc_ex.o(i.HAL_ADC_Start_IT) refers to stm32f3xx_hal_adc_ex.o(i.ADC_Enable) for ADC_Enable
    stm32f3xx_hal_adc_ex.o(i.HAL_ADC_Stop) refers to stm32f3xx_hal_adc_ex.o(i.ADC_ConversionStop) for ADC_ConversionStop
    stm32f3xx_hal_adc_ex.o(i.HAL_ADC_Stop) refers to stm32f3xx_hal_adc_ex.o(i.ADC_Disable) for ADC_Disable
    stm32f3xx_hal_adc_ex.o(i.HAL_ADC_Stop_DMA) refers to stm32f3xx_hal_adc_ex.o(i.ADC_ConversionStop) for ADC_ConversionStop
    stm32f3xx_hal_adc_ex.o(i.HAL_ADC_Stop_DMA) refers to stm32f3xx_hal_dma.o(i.HAL_DMA_Abort) for HAL_DMA_Abort
    stm32f3xx_hal_adc_ex.o(i.HAL_ADC_Stop_DMA) refers to stm32f3xx_hal_adc_ex.o(i.ADC_Disable) for ADC_Disable
    stm32f3xx_hal_adc_ex.o(i.HAL_ADC_Stop_IT) refers to stm32f3xx_hal_adc_ex.o(i.ADC_ConversionStop) for ADC_ConversionStop
    stm32f3xx_hal_adc_ex.o(i.HAL_ADC_Stop_IT) refers to stm32f3xx_hal_adc_ex.o(i.ADC_Disable) for ADC_Disable
    stm32f3xx_hal_tim.o(i.HAL_TIM_Base_DeInit) refers to stm32f3xx_hal_tim.o(i.HAL_TIM_Base_MspDeInit) for HAL_TIM_Base_MspDeInit
    stm32f3xx_hal_tim.o(i.HAL_TIM_Base_Init) refers to stm32f3xx_hal_msp.o(i.HAL_TIM_Base_MspInit) for HAL_TIM_Base_MspInit
    stm32f3xx_hal_tim.o(i.HAL_TIM_Base_Init) refers to stm32f3xx_hal_tim.o(i.TIM_Base_SetConfig) for TIM_Base_SetConfig
    stm32f3xx_hal_tim.o(i.HAL_TIM_Base_Start_DMA) refers to stm32f3xx_hal_dma.o(i.HAL_DMA_Start_IT) for HAL_DMA_Start_IT
    stm32f3xx_hal_tim.o(i.HAL_TIM_Base_Start_DMA) refers to stm32f3xx_hal_tim.o(i.TIM_DMAPeriodElapsedCplt) for TIM_DMAPeriodElapsedCplt
    stm32f3xx_hal_tim.o(i.HAL_TIM_Base_Start_DMA) refers to stm32f3xx_hal_tim.o(i.TIM_DMAError) for TIM_DMAError
    stm32f3xx_hal_tim.o(i.HAL_TIM_ConfigClockSource) refers to stm32f3xx_hal_tim.o(i.TIM_ETR_SetConfig) for TIM_ETR_SetConfig
    stm32f3xx_hal_tim.o(i.HAL_TIM_ConfigClockSource) refers to stm32f3xx_hal_tim.o(i.TIM_TI1_ConfigInputStage) for TIM_TI1_ConfigInputStage
    stm32f3xx_hal_tim.o(i.HAL_TIM_ConfigClockSource) refers to stm32f3xx_hal_tim.o(i.TIM_TI2_ConfigInputStage) for TIM_TI2_ConfigInputStage
    stm32f3xx_hal_tim.o(i.HAL_TIM_ConfigClockSource) refers to stm32f3xx_hal_tim.o(i.TIM_ITRx_SetConfig) for TIM_ITRx_SetConfig
    stm32f3xx_hal_tim.o(i.HAL_TIM_ConfigOCrefClear) refers to stm32f3xx_hal_tim.o(i.TIM_ETR_SetConfig) for TIM_ETR_SetConfig
    stm32f3xx_hal_tim.o(i.HAL_TIM_DMABurst_MultiReadStart) refers to stm32f3xx_hal_dma.o(i.HAL_DMA_Start_IT) for HAL_DMA_Start_IT
    stm32f3xx_hal_tim.o(i.HAL_TIM_DMABurst_MultiReadStart) refers to stm32f3xx_hal_tim.o(i.TIM_DMAError) for TIM_DMAError
    stm32f3xx_hal_tim.o(i.HAL_TIM_DMABurst_MultiReadStart) refers to stm32f3xx_hal_tim.o(i.TIM_DMACaptureCplt) for TIM_DMACaptureCplt
    stm32f3xx_hal_tim.o(i.HAL_TIM_DMABurst_MultiReadStart) refers to stm32f3xx_hal_tim.o(i.TIM_DMAPeriodElapsedCplt) for TIM_DMAPeriodElapsedCplt
    stm32f3xx_hal_tim.o(i.HAL_TIM_DMABurst_MultiReadStart) refers to stm32f3xx_hal_tim_ex.o(i.TIMEx_DMACommutationCplt) for TIMEx_DMACommutationCplt
    stm32f3xx_hal_tim.o(i.HAL_TIM_DMABurst_MultiReadStart) refers to stm32f3xx_hal_tim.o(i.TIM_DMATriggerCplt) for TIM_DMATriggerCplt
    stm32f3xx_hal_tim.o(i.HAL_TIM_DMABurst_MultiWriteStart) refers to stm32f3xx_hal_dma.o(i.HAL_DMA_Start_IT) for HAL_DMA_Start_IT
    stm32f3xx_hal_tim.o(i.HAL_TIM_DMABurst_MultiWriteStart) refers to stm32f3xx_hal_tim.o(i.TIM_DMAError) for TIM_DMAError
    stm32f3xx_hal_tim.o(i.HAL_TIM_DMABurst_MultiWriteStart) refers to stm32f3xx_hal_tim.o(i.TIM_DMADelayPulseCplt) for TIM_DMADelayPulseCplt
    stm32f3xx_hal_tim.o(i.HAL_TIM_DMABurst_MultiWriteStart) refers to stm32f3xx_hal_tim.o(i.TIM_DMAPeriodElapsedCplt) for TIM_DMAPeriodElapsedCplt
    stm32f3xx_hal_tim.o(i.HAL_TIM_DMABurst_MultiWriteStart) refers to stm32f3xx_hal_tim_ex.o(i.TIMEx_DMACommutationCplt) for TIMEx_DMACommutationCplt
    stm32f3xx_hal_tim.o(i.HAL_TIM_DMABurst_MultiWriteStart) refers to stm32f3xx_hal_tim.o(i.TIM_DMATriggerCplt) for TIM_DMATriggerCplt
    stm32f3xx_hal_tim.o(i.HAL_TIM_DMABurst_ReadStart) refers to stm32f3xx_hal_tim.o(i.HAL_TIM_DMABurst_MultiReadStart) for HAL_TIM_DMABurst_MultiReadStart
    stm32f3xx_hal_tim.o(i.HAL_TIM_DMABurst_ReadStop) refers to stm32f3xx_hal_dma.o(i.HAL_DMA_Abort) for HAL_DMA_Abort
    stm32f3xx_hal_tim.o(i.HAL_TIM_DMABurst_WriteStart) refers to stm32f3xx_hal_tim.o(i.HAL_TIM_DMABurst_MultiWriteStart) for HAL_TIM_DMABurst_MultiWriteStart
    stm32f3xx_hal_tim.o(i.HAL_TIM_DMABurst_WriteStop) refers to stm32f3xx_hal_dma.o(i.HAL_DMA_Abort) for HAL_DMA_Abort
    stm32f3xx_hal_tim.o(i.HAL_TIM_Encoder_DeInit) refers to stm32f3xx_hal_tim.o(i.HAL_TIM_Encoder_MspDeInit) for HAL_TIM_Encoder_MspDeInit
    stm32f3xx_hal_tim.o(i.HAL_TIM_Encoder_Init) refers to stm32f3xx_hal_tim.o(i.HAL_TIM_Encoder_MspInit) for HAL_TIM_Encoder_MspInit
    stm32f3xx_hal_tim.o(i.HAL_TIM_Encoder_Init) refers to stm32f3xx_hal_tim.o(i.TIM_Base_SetConfig) for TIM_Base_SetConfig
    stm32f3xx_hal_tim.o(i.HAL_TIM_Encoder_Start) refers to stm32f3xx_hal_tim.o(i.TIM_CCxChannelCmd) for TIM_CCxChannelCmd
    stm32f3xx_hal_tim.o(i.HAL_TIM_Encoder_Start_DMA) refers to stm32f3xx_hal_dma.o(i.HAL_DMA_Start_IT) for HAL_DMA_Start_IT
    stm32f3xx_hal_tim.o(i.HAL_TIM_Encoder_Start_DMA) refers to stm32f3xx_hal_tim.o(i.TIM_CCxChannelCmd) for TIM_CCxChannelCmd
    stm32f3xx_hal_tim.o(i.HAL_TIM_Encoder_Start_DMA) refers to stm32f3xx_hal_tim.o(i.TIM_DMACaptureCplt) for TIM_DMACaptureCplt
    stm32f3xx_hal_tim.o(i.HAL_TIM_Encoder_Start_DMA) refers to stm32f3xx_hal_tim.o(i.TIM_DMAError) for TIM_DMAError
    stm32f3xx_hal_tim.o(i.HAL_TIM_Encoder_Start_IT) refers to stm32f3xx_hal_tim.o(i.TIM_CCxChannelCmd) for TIM_CCxChannelCmd
    stm32f3xx_hal_tim.o(i.HAL_TIM_Encoder_Stop) refers to stm32f3xx_hal_tim.o(i.TIM_CCxChannelCmd) for TIM_CCxChannelCmd
    stm32f3xx_hal_tim.o(i.HAL_TIM_Encoder_Stop_DMA) refers to stm32f3xx_hal_tim.o(i.TIM_CCxChannelCmd) for TIM_CCxChannelCmd
    stm32f3xx_hal_tim.o(i.HAL_TIM_Encoder_Stop_IT) refers to stm32f3xx_hal_tim.o(i.TIM_CCxChannelCmd) for TIM_CCxChannelCmd
    stm32f3xx_hal_tim.o(i.HAL_TIM_IC_ConfigChannel) refers to stm32f3xx_hal_tim.o(i.TIM_TI1_SetConfig) for TIM_TI1_SetConfig
    stm32f3xx_hal_tim.o(i.HAL_TIM_IC_ConfigChannel) refers to stm32f3xx_hal_tim.o(i.TIM_TI2_SetConfig) for TIM_TI2_SetConfig
    stm32f3xx_hal_tim.o(i.HAL_TIM_IC_DeInit) refers to stm32f3xx_hal_tim.o(i.HAL_TIM_IC_MspDeInit) for HAL_TIM_IC_MspDeInit
    stm32f3xx_hal_tim.o(i.HAL_TIM_IC_Init) refers to stm32f3xx_hal_tim.o(i.HAL_TIM_IC_MspInit) for HAL_TIM_IC_MspInit
    stm32f3xx_hal_tim.o(i.HAL_TIM_IC_Init) refers to stm32f3xx_hal_tim.o(i.TIM_Base_SetConfig) for TIM_Base_SetConfig
    stm32f3xx_hal_tim.o(i.HAL_TIM_IC_Start) refers to stm32f3xx_hal_tim.o(i.TIM_CCxChannelCmd) for TIM_CCxChannelCmd
    stm32f3xx_hal_tim.o(i.HAL_TIM_IC_Start_DMA) refers to stm32f3xx_hal_dma.o(i.HAL_DMA_Start_IT) for HAL_DMA_Start_IT
    stm32f3xx_hal_tim.o(i.HAL_TIM_IC_Start_DMA) refers to stm32f3xx_hal_tim.o(i.TIM_CCxChannelCmd) for TIM_CCxChannelCmd
    stm32f3xx_hal_tim.o(i.HAL_TIM_IC_Start_DMA) refers to stm32f3xx_hal_tim.o(i.TIM_DMACaptureCplt) for TIM_DMACaptureCplt
    stm32f3xx_hal_tim.o(i.HAL_TIM_IC_Start_DMA) refers to stm32f3xx_hal_tim.o(i.TIM_DMAError) for TIM_DMAError
    stm32f3xx_hal_tim.o(i.HAL_TIM_IC_Start_IT) refers to stm32f3xx_hal_tim.o(i.TIM_CCxChannelCmd) for TIM_CCxChannelCmd
    stm32f3xx_hal_tim.o(i.HAL_TIM_IC_Stop) refers to stm32f3xx_hal_tim.o(i.TIM_CCxChannelCmd) for TIM_CCxChannelCmd
    stm32f3xx_hal_tim.o(i.HAL_TIM_IC_Stop_DMA) refers to stm32f3xx_hal_tim.o(i.TIM_CCxChannelCmd) for TIM_CCxChannelCmd
    stm32f3xx_hal_tim.o(i.HAL_TIM_IC_Stop_IT) refers to stm32f3xx_hal_tim.o(i.TIM_CCxChannelCmd) for TIM_CCxChannelCmd
    stm32f3xx_hal_tim.o(i.HAL_TIM_IRQHandler) refers to stm32f3xx_hal_tim.o(i.HAL_TIM_IC_CaptureCallback) for HAL_TIM_IC_CaptureCallback
    stm32f3xx_hal_tim.o(i.HAL_TIM_IRQHandler) refers to stm32f3xx_hal_tim.o(i.HAL_TIM_OC_DelayElapsedCallback) for HAL_TIM_OC_DelayElapsedCallback
    stm32f3xx_hal_tim.o(i.HAL_TIM_IRQHandler) refers to stm32f3xx_hal_tim.o(i.HAL_TIM_PWM_PulseFinishedCallback) for HAL_TIM_PWM_PulseFinishedCallback
    stm32f3xx_hal_tim.o(i.HAL_TIM_IRQHandler) refers to tem_adc.o(i.HAL_TIM_PeriodElapsedCallback) for HAL_TIM_PeriodElapsedCallback
    stm32f3xx_hal_tim.o(i.HAL_TIM_IRQHandler) refers to stm32f3xx_hal_tim_ex.o(i.HAL_TIMEx_BreakCallback) for HAL_TIMEx_BreakCallback
    stm32f3xx_hal_tim.o(i.HAL_TIM_IRQHandler) refers to stm32f3xx_hal_tim_ex.o(i.HAL_TIMEx_Break2Callback) for HAL_TIMEx_Break2Callback
    stm32f3xx_hal_tim.o(i.HAL_TIM_IRQHandler) refers to stm32f3xx_hal_tim.o(i.HAL_TIM_TriggerCallback) for HAL_TIM_TriggerCallback
    stm32f3xx_hal_tim.o(i.HAL_TIM_IRQHandler) refers to stm32f3xx_hal_tim_ex.o(i.HAL_TIMEx_CommutationCallback) for HAL_TIMEx_CommutationCallback
    stm32f3xx_hal_tim.o(i.HAL_TIM_OC_ConfigChannel) refers to stm32f3xx_hal_tim.o(i.TIM_OC1_SetConfig) for TIM_OC1_SetConfig
    stm32f3xx_hal_tim.o(i.HAL_TIM_OC_ConfigChannel) refers to stm32f3xx_hal_tim.o(i.TIM_OC2_SetConfig) for TIM_OC2_SetConfig
    stm32f3xx_hal_tim.o(i.HAL_TIM_OC_ConfigChannel) refers to stm32f3xx_hal_tim.o(i.TIM_OC3_SetConfig) for TIM_OC3_SetConfig
    stm32f3xx_hal_tim.o(i.HAL_TIM_OC_ConfigChannel) refers to stm32f3xx_hal_tim.o(i.TIM_OC4_SetConfig) for TIM_OC4_SetConfig
    stm32f3xx_hal_tim.o(i.HAL_TIM_OC_DeInit) refers to stm32f3xx_hal_tim.o(i.HAL_TIM_OC_MspDeInit) for HAL_TIM_OC_MspDeInit
    stm32f3xx_hal_tim.o(i.HAL_TIM_OC_Init) refers to stm32f3xx_hal_tim.o(i.HAL_TIM_OC_MspInit) for HAL_TIM_OC_MspInit
    stm32f3xx_hal_tim.o(i.HAL_TIM_OC_Init) refers to stm32f3xx_hal_tim.o(i.TIM_Base_SetConfig) for TIM_Base_SetConfig
    stm32f3xx_hal_tim.o(i.HAL_TIM_OC_Start) refers to stm32f3xx_hal_tim.o(i.TIM_CCxChannelCmd) for TIM_CCxChannelCmd
    stm32f3xx_hal_tim.o(i.HAL_TIM_OC_Start_DMA) refers to stm32f3xx_hal_dma.o(i.HAL_DMA_Start_IT) for HAL_DMA_Start_IT
    stm32f3xx_hal_tim.o(i.HAL_TIM_OC_Start_DMA) refers to stm32f3xx_hal_tim.o(i.TIM_CCxChannelCmd) for TIM_CCxChannelCmd
    stm32f3xx_hal_tim.o(i.HAL_TIM_OC_Start_DMA) refers to stm32f3xx_hal_tim.o(i.TIM_DMADelayPulseCplt) for TIM_DMADelayPulseCplt
    stm32f3xx_hal_tim.o(i.HAL_TIM_OC_Start_DMA) refers to stm32f3xx_hal_tim.o(i.TIM_DMAError) for TIM_DMAError
    stm32f3xx_hal_tim.o(i.HAL_TIM_OC_Start_IT) refers to stm32f3xx_hal_tim.o(i.TIM_CCxChannelCmd) for TIM_CCxChannelCmd
    stm32f3xx_hal_tim.o(i.HAL_TIM_OC_Stop) refers to stm32f3xx_hal_tim.o(i.TIM_CCxChannelCmd) for TIM_CCxChannelCmd
    stm32f3xx_hal_tim.o(i.HAL_TIM_OC_Stop_DMA) refers to stm32f3xx_hal_tim.o(i.TIM_CCxChannelCmd) for TIM_CCxChannelCmd
    stm32f3xx_hal_tim.o(i.HAL_TIM_OC_Stop_IT) refers to stm32f3xx_hal_tim.o(i.TIM_CCxChannelCmd) for TIM_CCxChannelCmd
    stm32f3xx_hal_tim.o(i.HAL_TIM_OnePulse_ConfigChannel) refers to stm32f3xx_hal_tim.o(i.TIM_OC1_SetConfig) for TIM_OC1_SetConfig
    stm32f3xx_hal_tim.o(i.HAL_TIM_OnePulse_ConfigChannel) refers to stm32f3xx_hal_tim.o(i.TIM_OC2_SetConfig) for TIM_OC2_SetConfig
    stm32f3xx_hal_tim.o(i.HAL_TIM_OnePulse_ConfigChannel) refers to stm32f3xx_hal_tim.o(i.TIM_TI1_SetConfig) for TIM_TI1_SetConfig
    stm32f3xx_hal_tim.o(i.HAL_TIM_OnePulse_ConfigChannel) refers to stm32f3xx_hal_tim.o(i.TIM_TI2_SetConfig) for TIM_TI2_SetConfig
    stm32f3xx_hal_tim.o(i.HAL_TIM_OnePulse_DeInit) refers to stm32f3xx_hal_tim.o(i.HAL_TIM_OnePulse_MspDeInit) for HAL_TIM_OnePulse_MspDeInit
    stm32f3xx_hal_tim.o(i.HAL_TIM_OnePulse_Init) refers to stm32f3xx_hal_tim.o(i.HAL_TIM_OnePulse_MspInit) for HAL_TIM_OnePulse_MspInit
    stm32f3xx_hal_tim.o(i.HAL_TIM_OnePulse_Init) refers to stm32f3xx_hal_tim.o(i.TIM_Base_SetConfig) for TIM_Base_SetConfig
    stm32f3xx_hal_tim.o(i.HAL_TIM_OnePulse_Start) refers to stm32f3xx_hal_tim.o(i.TIM_CCxChannelCmd) for TIM_CCxChannelCmd
    stm32f3xx_hal_tim.o(i.HAL_TIM_OnePulse_Start_IT) refers to stm32f3xx_hal_tim.o(i.TIM_CCxChannelCmd) for TIM_CCxChannelCmd
    stm32f3xx_hal_tim.o(i.HAL_TIM_OnePulse_Stop) refers to stm32f3xx_hal_tim.o(i.TIM_CCxChannelCmd) for TIM_CCxChannelCmd
    stm32f3xx_hal_tim.o(i.HAL_TIM_OnePulse_Stop_IT) refers to stm32f3xx_hal_tim.o(i.TIM_CCxChannelCmd) for TIM_CCxChannelCmd
    stm32f3xx_hal_tim.o(i.HAL_TIM_PWM_ConfigChannel) refers to stm32f3xx_hal_tim.o(i.TIM_OC1_SetConfig) for TIM_OC1_SetConfig
    stm32f3xx_hal_tim.o(i.HAL_TIM_PWM_ConfigChannel) refers to stm32f3xx_hal_tim.o(i.TIM_OC2_SetConfig) for TIM_OC2_SetConfig
    stm32f3xx_hal_tim.o(i.HAL_TIM_PWM_ConfigChannel) refers to stm32f3xx_hal_tim.o(i.TIM_OC3_SetConfig) for TIM_OC3_SetConfig
    stm32f3xx_hal_tim.o(i.HAL_TIM_PWM_ConfigChannel) refers to stm32f3xx_hal_tim.o(i.TIM_OC4_SetConfig) for TIM_OC4_SetConfig
    stm32f3xx_hal_tim.o(i.HAL_TIM_PWM_DeInit) refers to stm32f3xx_hal_tim.o(i.HAL_TIM_PWM_MspDeInit) for HAL_TIM_PWM_MspDeInit
    stm32f3xx_hal_tim.o(i.HAL_TIM_PWM_Init) refers to stm32f3xx_hal_tim.o(i.HAL_TIM_PWM_MspInit) for HAL_TIM_PWM_MspInit
    stm32f3xx_hal_tim.o(i.HAL_TIM_PWM_Init) refers to stm32f3xx_hal_tim.o(i.TIM_Base_SetConfig) for TIM_Base_SetConfig
    stm32f3xx_hal_tim.o(i.HAL_TIM_PWM_Start) refers to stm32f3xx_hal_tim.o(i.TIM_CCxChannelCmd) for TIM_CCxChannelCmd
    stm32f3xx_hal_tim.o(i.HAL_TIM_PWM_Start_DMA) refers to stm32f3xx_hal_dma.o(i.HAL_DMA_Start_IT) for HAL_DMA_Start_IT
    stm32f3xx_hal_tim.o(i.HAL_TIM_PWM_Start_DMA) refers to stm32f3xx_hal_tim.o(i.TIM_CCxChannelCmd) for TIM_CCxChannelCmd
    stm32f3xx_hal_tim.o(i.HAL_TIM_PWM_Start_DMA) refers to stm32f3xx_hal_tim.o(i.TIM_DMADelayPulseCplt) for TIM_DMADelayPulseCplt
    stm32f3xx_hal_tim.o(i.HAL_TIM_PWM_Start_DMA) refers to stm32f3xx_hal_tim.o(i.TIM_DMAError) for TIM_DMAError
    stm32f3xx_hal_tim.o(i.HAL_TIM_PWM_Start_IT) refers to stm32f3xx_hal_tim.o(i.TIM_CCxChannelCmd) for TIM_CCxChannelCmd
    stm32f3xx_hal_tim.o(i.HAL_TIM_PWM_Stop) refers to stm32f3xx_hal_tim.o(i.TIM_CCxChannelCmd) for TIM_CCxChannelCmd
    stm32f3xx_hal_tim.o(i.HAL_TIM_PWM_Stop_DMA) refers to stm32f3xx_hal_tim.o(i.TIM_CCxChannelCmd) for TIM_CCxChannelCmd
    stm32f3xx_hal_tim.o(i.HAL_TIM_PWM_Stop_IT) refers to stm32f3xx_hal_tim.o(i.TIM_CCxChannelCmd) for TIM_CCxChannelCmd
    stm32f3xx_hal_tim.o(i.HAL_TIM_SlaveConfigSynchronization) refers to stm32f3xx_hal_tim.o(i.TIM_SlaveTimer_SetConfig) for TIM_SlaveTimer_SetConfig
    stm32f3xx_hal_tim.o(i.HAL_TIM_SlaveConfigSynchronization_IT) refers to stm32f3xx_hal_tim.o(i.TIM_SlaveTimer_SetConfig) for TIM_SlaveTimer_SetConfig
    stm32f3xx_hal_tim.o(i.TIM_DMACaptureCplt) refers to stm32f3xx_hal_tim.o(i.HAL_TIM_IC_CaptureCallback) for HAL_TIM_IC_CaptureCallback
    stm32f3xx_hal_tim.o(i.TIM_DMADelayPulseCplt) refers to stm32f3xx_hal_tim.o(i.HAL_TIM_PWM_PulseFinishedCallback) for HAL_TIM_PWM_PulseFinishedCallback
    stm32f3xx_hal_tim.o(i.TIM_DMAError) refers to stm32f3xx_hal_tim.o(i.HAL_TIM_ErrorCallback) for HAL_TIM_ErrorCallback
    stm32f3xx_hal_tim.o(i.TIM_DMAPeriodElapsedCplt) refers to tem_adc.o(i.HAL_TIM_PeriodElapsedCallback) for HAL_TIM_PeriodElapsedCallback
    stm32f3xx_hal_tim.o(i.TIM_DMATriggerCplt) refers to stm32f3xx_hal_tim.o(i.HAL_TIM_TriggerCallback) for HAL_TIM_TriggerCallback
    stm32f3xx_hal_tim.o(i.TIM_SlaveTimer_SetConfig) refers to stm32f3xx_hal_tim.o(i.TIM_ETR_SetConfig) for TIM_ETR_SetConfig
    stm32f3xx_hal_tim.o(i.TIM_SlaveTimer_SetConfig) refers to stm32f3xx_hal_tim.o(i.TIM_TI1_ConfigInputStage) for TIM_TI1_ConfigInputStage
    stm32f3xx_hal_tim.o(i.TIM_SlaveTimer_SetConfig) refers to stm32f3xx_hal_tim.o(i.TIM_TI2_ConfigInputStage) for TIM_TI2_ConfigInputStage
    stm32f3xx_hal_tim_ex.o(i.HAL_TIMEx_ConfigCommutationEvent_DMA) refers to stm32f3xx_hal_tim_ex.o(i.TIMEx_DMACommutationCplt) for TIMEx_DMACommutationCplt
    stm32f3xx_hal_tim_ex.o(i.HAL_TIMEx_ConfigCommutationEvent_DMA) refers to stm32f3xx_hal_tim.o(i.TIM_DMAError) for TIM_DMAError
    stm32f3xx_hal_tim_ex.o(i.HAL_TIMEx_HallSensor_DeInit) refers to stm32f3xx_hal_tim_ex.o(i.HAL_TIMEx_HallSensor_MspDeInit) for HAL_TIMEx_HallSensor_MspDeInit
    stm32f3xx_hal_tim_ex.o(i.HAL_TIMEx_HallSensor_Init) refers to stm32f3xx_hal_tim_ex.o(i.HAL_TIMEx_HallSensor_MspInit) for HAL_TIMEx_HallSensor_MspInit
    stm32f3xx_hal_tim_ex.o(i.HAL_TIMEx_HallSensor_Init) refers to stm32f3xx_hal_tim.o(i.TIM_Base_SetConfig) for TIM_Base_SetConfig
    stm32f3xx_hal_tim_ex.o(i.HAL_TIMEx_HallSensor_Init) refers to stm32f3xx_hal_tim.o(i.TIM_TI1_SetConfig) for TIM_TI1_SetConfig
    stm32f3xx_hal_tim_ex.o(i.HAL_TIMEx_HallSensor_Init) refers to stm32f3xx_hal_tim.o(i.TIM_OC2_SetConfig) for TIM_OC2_SetConfig
    stm32f3xx_hal_tim_ex.o(i.HAL_TIMEx_HallSensor_Start) refers to stm32f3xx_hal_tim.o(i.TIM_CCxChannelCmd) for TIM_CCxChannelCmd
    stm32f3xx_hal_tim_ex.o(i.HAL_TIMEx_HallSensor_Start_DMA) refers to stm32f3xx_hal_tim.o(i.TIM_CCxChannelCmd) for TIM_CCxChannelCmd
    stm32f3xx_hal_tim_ex.o(i.HAL_TIMEx_HallSensor_Start_DMA) refers to stm32f3xx_hal_dma.o(i.HAL_DMA_Start_IT) for HAL_DMA_Start_IT
    stm32f3xx_hal_tim_ex.o(i.HAL_TIMEx_HallSensor_Start_DMA) refers to stm32f3xx_hal_tim.o(i.TIM_DMACaptureCplt) for TIM_DMACaptureCplt
    stm32f3xx_hal_tim_ex.o(i.HAL_TIMEx_HallSensor_Start_DMA) refers to stm32f3xx_hal_tim.o(i.TIM_DMAError) for TIM_DMAError
    stm32f3xx_hal_tim_ex.o(i.HAL_TIMEx_HallSensor_Start_IT) refers to stm32f3xx_hal_tim.o(i.TIM_CCxChannelCmd) for TIM_CCxChannelCmd
    stm32f3xx_hal_tim_ex.o(i.HAL_TIMEx_HallSensor_Stop) refers to stm32f3xx_hal_tim.o(i.TIM_CCxChannelCmd) for TIM_CCxChannelCmd
    stm32f3xx_hal_tim_ex.o(i.HAL_TIMEx_HallSensor_Stop_DMA) refers to stm32f3xx_hal_tim.o(i.TIM_CCxChannelCmd) for TIM_CCxChannelCmd
    stm32f3xx_hal_tim_ex.o(i.HAL_TIMEx_HallSensor_Stop_IT) refers to stm32f3xx_hal_tim.o(i.TIM_CCxChannelCmd) for TIM_CCxChannelCmd
    stm32f3xx_hal_tim_ex.o(i.HAL_TIMEx_OCN_Start) refers to stm32f3xx_hal_tim_ex.o(i.TIM_CCxNChannelCmd) for TIM_CCxNChannelCmd
    stm32f3xx_hal_tim_ex.o(i.HAL_TIMEx_OCN_Start_DMA) refers to stm32f3xx_hal_dma.o(i.HAL_DMA_Start_IT) for HAL_DMA_Start_IT
    stm32f3xx_hal_tim_ex.o(i.HAL_TIMEx_OCN_Start_DMA) refers to stm32f3xx_hal_tim_ex.o(i.TIM_CCxNChannelCmd) for TIM_CCxNChannelCmd
    stm32f3xx_hal_tim_ex.o(i.HAL_TIMEx_OCN_Start_DMA) refers to stm32f3xx_hal_tim.o(i.TIM_DMADelayPulseCplt) for TIM_DMADelayPulseCplt
    stm32f3xx_hal_tim_ex.o(i.HAL_TIMEx_OCN_Start_DMA) refers to stm32f3xx_hal_tim.o(i.TIM_DMAError) for TIM_DMAError
    stm32f3xx_hal_tim_ex.o(i.HAL_TIMEx_OCN_Start_IT) refers to stm32f3xx_hal_tim_ex.o(i.TIM_CCxNChannelCmd) for TIM_CCxNChannelCmd
    stm32f3xx_hal_tim_ex.o(i.HAL_TIMEx_OCN_Stop) refers to stm32f3xx_hal_tim_ex.o(i.TIM_CCxNChannelCmd) for TIM_CCxNChannelCmd
    stm32f3xx_hal_tim_ex.o(i.HAL_TIMEx_OCN_Stop_DMA) refers to stm32f3xx_hal_tim_ex.o(i.TIM_CCxNChannelCmd) for TIM_CCxNChannelCmd
    stm32f3xx_hal_tim_ex.o(i.HAL_TIMEx_OCN_Stop_IT) refers to stm32f3xx_hal_tim_ex.o(i.TIM_CCxNChannelCmd) for TIM_CCxNChannelCmd
    stm32f3xx_hal_tim_ex.o(i.HAL_TIMEx_OnePulseN_Start) refers to stm32f3xx_hal_tim_ex.o(i.TIM_CCxNChannelCmd) for TIM_CCxNChannelCmd
    stm32f3xx_hal_tim_ex.o(i.HAL_TIMEx_OnePulseN_Start_IT) refers to stm32f3xx_hal_tim_ex.o(i.TIM_CCxNChannelCmd) for TIM_CCxNChannelCmd
    stm32f3xx_hal_tim_ex.o(i.HAL_TIMEx_OnePulseN_Stop) refers to stm32f3xx_hal_tim_ex.o(i.TIM_CCxNChannelCmd) for TIM_CCxNChannelCmd
    stm32f3xx_hal_tim_ex.o(i.HAL_TIMEx_OnePulseN_Stop_IT) refers to stm32f3xx_hal_tim_ex.o(i.TIM_CCxNChannelCmd) for TIM_CCxNChannelCmd
    stm32f3xx_hal_tim_ex.o(i.HAL_TIMEx_PWMN_Start) refers to stm32f3xx_hal_tim_ex.o(i.TIM_CCxNChannelCmd) for TIM_CCxNChannelCmd
    stm32f3xx_hal_tim_ex.o(i.HAL_TIMEx_PWMN_Start_DMA) refers to stm32f3xx_hal_dma.o(i.HAL_DMA_Start_IT) for HAL_DMA_Start_IT
    stm32f3xx_hal_tim_ex.o(i.HAL_TIMEx_PWMN_Start_DMA) refers to stm32f3xx_hal_tim_ex.o(i.TIM_CCxNChannelCmd) for TIM_CCxNChannelCmd
    stm32f3xx_hal_tim_ex.o(i.HAL_TIMEx_PWMN_Start_DMA) refers to stm32f3xx_hal_tim.o(i.TIM_DMADelayPulseCplt) for TIM_DMADelayPulseCplt
    stm32f3xx_hal_tim_ex.o(i.HAL_TIMEx_PWMN_Start_DMA) refers to stm32f3xx_hal_tim.o(i.TIM_DMAError) for TIM_DMAError
    stm32f3xx_hal_tim_ex.o(i.HAL_TIMEx_PWMN_Start_IT) refers to stm32f3xx_hal_tim_ex.o(i.TIM_CCxNChannelCmd) for TIM_CCxNChannelCmd
    stm32f3xx_hal_tim_ex.o(i.HAL_TIMEx_PWMN_Stop) refers to stm32f3xx_hal_tim_ex.o(i.TIM_CCxNChannelCmd) for TIM_CCxNChannelCmd
    stm32f3xx_hal_tim_ex.o(i.HAL_TIMEx_PWMN_Stop_DMA) refers to stm32f3xx_hal_tim_ex.o(i.TIM_CCxNChannelCmd) for TIM_CCxNChannelCmd
    stm32f3xx_hal_tim_ex.o(i.HAL_TIMEx_PWMN_Stop_IT) refers to stm32f3xx_hal_tim_ex.o(i.TIM_CCxNChannelCmd) for TIM_CCxNChannelCmd
    stm32f3xx_hal_tim_ex.o(i.HAL_TIM_ConfigOCrefClear) refers to stm32f3xx_hal_tim.o(i.TIM_ETR_SetConfig) for TIM_ETR_SetConfig
    stm32f3xx_hal_tim_ex.o(i.HAL_TIM_OC_ConfigChannel) refers to stm32f3xx_hal_tim.o(i.TIM_OC1_SetConfig) for TIM_OC1_SetConfig
    stm32f3xx_hal_tim_ex.o(i.HAL_TIM_OC_ConfigChannel) refers to stm32f3xx_hal_tim.o(i.TIM_OC2_SetConfig) for TIM_OC2_SetConfig
    stm32f3xx_hal_tim_ex.o(i.HAL_TIM_OC_ConfigChannel) refers to stm32f3xx_hal_tim.o(i.TIM_OC3_SetConfig) for TIM_OC3_SetConfig
    stm32f3xx_hal_tim_ex.o(i.HAL_TIM_OC_ConfigChannel) refers to stm32f3xx_hal_tim.o(i.TIM_OC4_SetConfig) for TIM_OC4_SetConfig
    stm32f3xx_hal_tim_ex.o(i.HAL_TIM_OC_ConfigChannel) refers to stm32f3xx_hal_tim_ex.o(i.TIM_OC5_SetConfig) for TIM_OC5_SetConfig
    stm32f3xx_hal_tim_ex.o(i.HAL_TIM_OC_ConfigChannel) refers to stm32f3xx_hal_tim_ex.o(i.TIM_OC6_SetConfig) for TIM_OC6_SetConfig
    stm32f3xx_hal_tim_ex.o(i.HAL_TIM_PWM_ConfigChannel) refers to stm32f3xx_hal_tim.o(i.TIM_OC1_SetConfig) for TIM_OC1_SetConfig
    stm32f3xx_hal_tim_ex.o(i.HAL_TIM_PWM_ConfigChannel) refers to stm32f3xx_hal_tim.o(i.TIM_OC2_SetConfig) for TIM_OC2_SetConfig
    stm32f3xx_hal_tim_ex.o(i.HAL_TIM_PWM_ConfigChannel) refers to stm32f3xx_hal_tim.o(i.TIM_OC3_SetConfig) for TIM_OC3_SetConfig
    stm32f3xx_hal_tim_ex.o(i.HAL_TIM_PWM_ConfigChannel) refers to stm32f3xx_hal_tim.o(i.TIM_OC4_SetConfig) for TIM_OC4_SetConfig
    stm32f3xx_hal_tim_ex.o(i.HAL_TIM_PWM_ConfigChannel) refers to stm32f3xx_hal_tim_ex.o(i.TIM_OC5_SetConfig) for TIM_OC5_SetConfig
    stm32f3xx_hal_tim_ex.o(i.HAL_TIM_PWM_ConfigChannel) refers to stm32f3xx_hal_tim_ex.o(i.TIM_OC6_SetConfig) for TIM_OC6_SetConfig
    stm32f3xx_hal_tim_ex.o(i.TIMEx_DMACommutationCplt) refers to stm32f3xx_hal_tim_ex.o(i.HAL_TIMEx_CommutationCallback) for HAL_TIMEx_CommutationCallback
    stm32f3xx_hal_uart.o(i.HAL_HalfDuplex_Init) refers to stm32f3xx_hal_msp.o(i.HAL_UART_MspInit) for HAL_UART_MspInit
    stm32f3xx_hal_uart.o(i.HAL_HalfDuplex_Init) refers to stm32f3xx_hal_uart.o(i.UART_SetConfig) for UART_SetConfig
    stm32f3xx_hal_uart.o(i.HAL_HalfDuplex_Init) refers to stm32f3xx_hal_uart.o(i.UART_AdvFeatureConfig) for UART_AdvFeatureConfig
    stm32f3xx_hal_uart.o(i.HAL_HalfDuplex_Init) refers to stm32f3xx_hal_uart.o(i.UART_CheckIdleState) for UART_CheckIdleState
    stm32f3xx_hal_uart.o(i.HAL_LIN_Init) refers to stm32f3xx_hal_msp.o(i.HAL_UART_MspInit) for HAL_UART_MspInit
    stm32f3xx_hal_uart.o(i.HAL_LIN_Init) refers to stm32f3xx_hal_uart.o(i.UART_SetConfig) for UART_SetConfig
    stm32f3xx_hal_uart.o(i.HAL_LIN_Init) refers to stm32f3xx_hal_uart.o(i.UART_AdvFeatureConfig) for UART_AdvFeatureConfig
    stm32f3xx_hal_uart.o(i.HAL_LIN_Init) refers to stm32f3xx_hal_uart.o(i.UART_CheckIdleState) for UART_CheckIdleState
    stm32f3xx_hal_uart.o(i.HAL_MultiProcessor_DisableMuteMode) refers to stm32f3xx_hal_uart.o(i.UART_CheckIdleState) for UART_CheckIdleState
    stm32f3xx_hal_uart.o(i.HAL_MultiProcessor_EnableMuteMode) refers to stm32f3xx_hal_uart.o(i.UART_CheckIdleState) for UART_CheckIdleState
    stm32f3xx_hal_uart.o(i.HAL_MultiProcessor_Init) refers to stm32f3xx_hal_msp.o(i.HAL_UART_MspInit) for HAL_UART_MspInit
    stm32f3xx_hal_uart.o(i.HAL_MultiProcessor_Init) refers to stm32f3xx_hal_uart.o(i.UART_SetConfig) for UART_SetConfig
    stm32f3xx_hal_uart.o(i.HAL_MultiProcessor_Init) refers to stm32f3xx_hal_uart.o(i.UART_AdvFeatureConfig) for UART_AdvFeatureConfig
    stm32f3xx_hal_uart.o(i.HAL_MultiProcessor_Init) refers to stm32f3xx_hal_uart.o(i.UART_CheckIdleState) for UART_CheckIdleState
    stm32f3xx_hal_uart.o(i.HAL_UART_Abort) refers to stm32f3xx_hal_dma.o(i.HAL_DMA_Abort) for HAL_DMA_Abort
    stm32f3xx_hal_uart.o(i.HAL_UART_AbortReceive) refers to stm32f3xx_hal_dma.o(i.HAL_DMA_Abort) for HAL_DMA_Abort
    stm32f3xx_hal_uart.o(i.HAL_UART_AbortReceive_IT) refers to stm32f3xx_hal_dma.o(i.HAL_DMA_Abort_IT) for HAL_DMA_Abort_IT
    stm32f3xx_hal_uart.o(i.HAL_UART_AbortReceive_IT) refers to stm32f3xx_hal_uart.o(i.HAL_UART_AbortReceiveCpltCallback) for HAL_UART_AbortReceiveCpltCallback
    stm32f3xx_hal_uart.o(i.HAL_UART_AbortReceive_IT) refers to stm32f3xx_hal_uart.o(i.UART_DMARxOnlyAbortCallback) for UART_DMARxOnlyAbortCallback
    stm32f3xx_hal_uart.o(i.HAL_UART_AbortTransmit) refers to stm32f3xx_hal_dma.o(i.HAL_DMA_Abort) for HAL_DMA_Abort
    stm32f3xx_hal_uart.o(i.HAL_UART_AbortTransmit_IT) refers to stm32f3xx_hal_dma.o(i.HAL_DMA_Abort_IT) for HAL_DMA_Abort_IT
    stm32f3xx_hal_uart.o(i.HAL_UART_AbortTransmit_IT) refers to stm32f3xx_hal_uart.o(i.HAL_UART_AbortTransmitCpltCallback) for HAL_UART_AbortTransmitCpltCallback
    stm32f3xx_hal_uart.o(i.HAL_UART_AbortTransmit_IT) refers to stm32f3xx_hal_uart.o(i.UART_DMATxOnlyAbortCallback) for UART_DMATxOnlyAbortCallback
    stm32f3xx_hal_uart.o(i.HAL_UART_Abort_IT) refers to stm32f3xx_hal_dma.o(i.HAL_DMA_Abort_IT) for HAL_DMA_Abort_IT
    stm32f3xx_hal_uart.o(i.HAL_UART_Abort_IT) refers to stm32f3xx_hal_uart.o(i.HAL_UART_AbortCpltCallback) for HAL_UART_AbortCpltCallback
    stm32f3xx_hal_uart.o(i.HAL_UART_Abort_IT) refers to stm32f3xx_hal_uart.o(i.UART_DMATxAbortCallback) for UART_DMATxAbortCallback
    stm32f3xx_hal_uart.o(i.HAL_UART_Abort_IT) refers to stm32f3xx_hal_uart.o(i.UART_DMARxAbortCallback) for UART_DMARxAbortCallback
    stm32f3xx_hal_uart.o(i.HAL_UART_DMAStop) refers to stm32f3xx_hal_dma.o(i.HAL_DMA_Abort) for HAL_DMA_Abort
    stm32f3xx_hal_uart.o(i.HAL_UART_DMAStop) refers to stm32f3xx_hal_uart.o(i.UART_EndTxTransfer) for UART_EndTxTransfer
    stm32f3xx_hal_uart.o(i.HAL_UART_DMAStop) refers to stm32f3xx_hal_uart.o(i.UART_EndRxTransfer) for UART_EndRxTransfer
    stm32f3xx_hal_uart.o(i.HAL_UART_DeInit) refers to stm32f3xx_hal_msp.o(i.HAL_UART_MspDeInit) for HAL_UART_MspDeInit
    stm32f3xx_hal_uart.o(i.HAL_UART_IRQHandler) refers to stm32f3xx_hal_uart.o(i.UART_Receive_IT) for UART_Receive_IT
    stm32f3xx_hal_uart.o(i.HAL_UART_IRQHandler) refers to stm32f3xx_hal_uart.o(i.UART_EndRxTransfer) for UART_EndRxTransfer
    stm32f3xx_hal_uart.o(i.HAL_UART_IRQHandler) refers to stm32f3xx_hal_dma.o(i.HAL_DMA_Abort_IT) for HAL_DMA_Abort_IT
    stm32f3xx_hal_uart.o(i.HAL_UART_IRQHandler) refers to stm32f3xx_hal_uart.o(i.HAL_UART_ErrorCallback) for HAL_UART_ErrorCallback
    stm32f3xx_hal_uart.o(i.HAL_UART_IRQHandler) refers to stm32f3xx_hal_uart_ex.o(i.HAL_UARTEx_WakeupCallback) for HAL_UARTEx_WakeupCallback
    stm32f3xx_hal_uart.o(i.HAL_UART_IRQHandler) refers to stm32f3xx_hal_uart.o(i.UART_Transmit_IT) for UART_Transmit_IT
    stm32f3xx_hal_uart.o(i.HAL_UART_IRQHandler) refers to stm32f3xx_hal_uart.o(i.UART_EndTransmit_IT) for UART_EndTransmit_IT
    stm32f3xx_hal_uart.o(i.HAL_UART_IRQHandler) refers to stm32f3xx_hal_uart.o(i.UART_DMAAbortOnError) for UART_DMAAbortOnError
    stm32f3xx_hal_uart.o(i.HAL_UART_Init) refers to stm32f3xx_hal_msp.o(i.HAL_UART_MspInit) for HAL_UART_MspInit
    stm32f3xx_hal_uart.o(i.HAL_UART_Init) refers to stm32f3xx_hal_uart.o(i.UART_SetConfig) for UART_SetConfig
    stm32f3xx_hal_uart.o(i.HAL_UART_Init) refers to stm32f3xx_hal_uart.o(i.UART_AdvFeatureConfig) for UART_AdvFeatureConfig
    stm32f3xx_hal_uart.o(i.HAL_UART_Init) refers to stm32f3xx_hal_uart.o(i.UART_CheckIdleState) for UART_CheckIdleState
    stm32f3xx_hal_uart.o(i.HAL_UART_Receive) refers to stm32f3xx_hal.o(i.HAL_GetTick) for HAL_GetTick
    stm32f3xx_hal_uart.o(i.HAL_UART_Receive) refers to stm32f3xx_hal_uart.o(i.UART_WaitOnFlagUntilTimeout) for UART_WaitOnFlagUntilTimeout
    stm32f3xx_hal_uart.o(i.HAL_UART_Receive_DMA) refers to stm32f3xx_hal_dma.o(i.HAL_DMA_Start_IT) for HAL_DMA_Start_IT
    stm32f3xx_hal_uart.o(i.HAL_UART_Receive_DMA) refers to stm32f3xx_hal_uart.o(i.UART_DMAReceiveCplt) for UART_DMAReceiveCplt
    stm32f3xx_hal_uart.o(i.HAL_UART_Receive_DMA) refers to stm32f3xx_hal_uart.o(i.UART_DMARxHalfCplt) for UART_DMARxHalfCplt
    stm32f3xx_hal_uart.o(i.HAL_UART_Receive_DMA) refers to stm32f3xx_hal_uart.o(i.UART_DMAError) for UART_DMAError
    stm32f3xx_hal_uart.o(i.HAL_UART_Transmit) refers to stm32f3xx_hal.o(i.HAL_GetTick) for HAL_GetTick
    stm32f3xx_hal_uart.o(i.HAL_UART_Transmit) refers to stm32f3xx_hal_uart.o(i.UART_WaitOnFlagUntilTimeout) for UART_WaitOnFlagUntilTimeout
    stm32f3xx_hal_uart.o(i.HAL_UART_Transmit_DMA) refers to stm32f3xx_hal_dma.o(i.HAL_DMA_Start_IT) for HAL_DMA_Start_IT
    stm32f3xx_hal_uart.o(i.HAL_UART_Transmit_DMA) refers to stm32f3xx_hal_uart.o(i.UART_DMATransmitCplt) for UART_DMATransmitCplt
    stm32f3xx_hal_uart.o(i.HAL_UART_Transmit_DMA) refers to stm32f3xx_hal_uart.o(i.UART_DMATxHalfCplt) for UART_DMATxHalfCplt
    stm32f3xx_hal_uart.o(i.HAL_UART_Transmit_DMA) refers to stm32f3xx_hal_uart.o(i.UART_DMAError) for UART_DMAError
    stm32f3xx_hal_uart.o(i.UART_CheckIdleState) refers to stm32f3xx_hal.o(i.HAL_GetTick) for HAL_GetTick
    stm32f3xx_hal_uart.o(i.UART_CheckIdleState) refers to stm32f3xx_hal_uart.o(i.UART_WaitOnFlagUntilTimeout) for UART_WaitOnFlagUntilTimeout
    stm32f3xx_hal_uart.o(i.UART_DMAAbortOnError) refers to stm32f3xx_hal_uart.o(i.HAL_UART_ErrorCallback) for HAL_UART_ErrorCallback
    stm32f3xx_hal_uart.o(i.UART_DMAError) refers to stm32f3xx_hal_uart.o(i.UART_EndTxTransfer) for UART_EndTxTransfer
    stm32f3xx_hal_uart.o(i.UART_DMAError) refers to stm32f3xx_hal_uart.o(i.UART_EndRxTransfer) for UART_EndRxTransfer
    stm32f3xx_hal_uart.o(i.UART_DMAError) refers to stm32f3xx_hal_uart.o(i.HAL_UART_ErrorCallback) for HAL_UART_ErrorCallback
    stm32f3xx_hal_uart.o(i.UART_DMAReceiveCplt) refers to main.o(i.HAL_UART_RxCpltCallback) for HAL_UART_RxCpltCallback
    stm32f3xx_hal_uart.o(i.UART_DMARxAbortCallback) refers to stm32f3xx_hal_uart.o(i.HAL_UART_AbortCpltCallback) for HAL_UART_AbortCpltCallback
    stm32f3xx_hal_uart.o(i.UART_DMARxHalfCplt) refers to stm32f3xx_hal_uart.o(i.HAL_UART_RxHalfCpltCallback) for HAL_UART_RxHalfCpltCallback
    stm32f3xx_hal_uart.o(i.UART_DMARxOnlyAbortCallback) refers to stm32f3xx_hal_uart.o(i.HAL_UART_AbortReceiveCpltCallback) for HAL_UART_AbortReceiveCpltCallback
    stm32f3xx_hal_uart.o(i.UART_DMATransmitCplt) refers to stm32f3xx_hal_uart.o(i.HAL_UART_TxCpltCallback) for HAL_UART_TxCpltCallback
    stm32f3xx_hal_uart.o(i.UART_DMATxAbortCallback) refers to stm32f3xx_hal_uart.o(i.HAL_UART_AbortCpltCallback) for HAL_UART_AbortCpltCallback
    stm32f3xx_hal_uart.o(i.UART_DMATxHalfCplt) refers to stm32f3xx_hal_uart.o(i.HAL_UART_TxHalfCpltCallback) for HAL_UART_TxHalfCpltCallback
    stm32f3xx_hal_uart.o(i.UART_DMATxOnlyAbortCallback) refers to stm32f3xx_hal_uart.o(i.HAL_UART_AbortTransmitCpltCallback) for HAL_UART_AbortTransmitCpltCallback
    stm32f3xx_hal_uart.o(i.UART_EndTransmit_IT) refers to stm32f3xx_hal_uart.o(i.HAL_UART_TxCpltCallback) for HAL_UART_TxCpltCallback
    stm32f3xx_hal_uart.o(i.UART_Receive_IT) refers to main.o(i.HAL_UART_RxCpltCallback) for HAL_UART_RxCpltCallback
    stm32f3xx_hal_uart.o(i.UART_SetConfig) refers to stm32f3xx_hal_rcc.o(i.HAL_RCC_GetPCLK1Freq) for HAL_RCC_GetPCLK1Freq
    stm32f3xx_hal_uart.o(i.UART_SetConfig) refers to stm32f3xx_hal_rcc.o(i.HAL_RCC_GetPCLK2Freq) for HAL_RCC_GetPCLK2Freq
    stm32f3xx_hal_uart.o(i.UART_SetConfig) refers to stm32f3xx_hal_rcc.o(i.HAL_RCC_GetSysClockFreq) for HAL_RCC_GetSysClockFreq
    stm32f3xx_hal_uart.o(i.UART_WaitOnFlagUntilTimeout) refers to stm32f3xx_hal.o(i.HAL_GetTick) for HAL_GetTick
    stm32f3xx_hal_uart_ex.o(i.HAL_MultiProcessorEx_AddressLength_Set) refers to stm32f3xx_hal_uart.o(i.UART_CheckIdleState) for UART_CheckIdleState
    stm32f3xx_hal_uart_ex.o(i.HAL_RS485Ex_Init) refers to stm32f3xx_hal_msp.o(i.HAL_UART_MspInit) for HAL_UART_MspInit
    stm32f3xx_hal_uart_ex.o(i.HAL_RS485Ex_Init) refers to stm32f3xx_hal_uart.o(i.UART_SetConfig) for UART_SetConfig
    stm32f3xx_hal_uart_ex.o(i.HAL_RS485Ex_Init) refers to stm32f3xx_hal_uart.o(i.UART_AdvFeatureConfig) for UART_AdvFeatureConfig
    stm32f3xx_hal_uart_ex.o(i.HAL_RS485Ex_Init) refers to stm32f3xx_hal_uart.o(i.UART_CheckIdleState) for UART_CheckIdleState
    stm32f3xx_hal_uart_ex.o(i.HAL_UARTEx_StopModeWakeUpSourceConfig) refers to stm32f3xx_hal_uart.o(i.UART_Wakeup_AddressConfig) for UART_Wakeup_AddressConfig
    stm32f3xx_hal_uart_ex.o(i.HAL_UARTEx_StopModeWakeUpSourceConfig) refers to stm32f3xx_hal.o(i.HAL_GetTick) for HAL_GetTick
    stm32f3xx_hal_uart_ex.o(i.HAL_UARTEx_StopModeWakeUpSourceConfig) refers to stm32f3xx_hal_uart.o(i.UART_WaitOnFlagUntilTimeout) for UART_WaitOnFlagUntilTimeout
    stm32f3xx_hal.o(i.HAL_DeInit) refers to stm32f3xx_hal.o(i.HAL_MspDeInit) for HAL_MspDeInit
    stm32f3xx_hal.o(i.HAL_Delay) refers to stm32f3xx_hal.o(i.HAL_GetTick) for HAL_GetTick
    stm32f3xx_hal.o(i.HAL_Delay) refers to stm32f3xx_hal.o(.data) for .data
    stm32f3xx_hal.o(i.HAL_GetTick) refers to stm32f3xx_hal.o(.data) for .data
    stm32f3xx_hal.o(i.HAL_GetTickFreq) refers to stm32f3xx_hal.o(.data) for .data
    stm32f3xx_hal.o(i.HAL_GetTickPrio) refers to stm32f3xx_hal.o(.data) for .data
    stm32f3xx_hal.o(i.HAL_IncTick) refers to stm32f3xx_hal.o(.data) for .data
    stm32f3xx_hal.o(i.HAL_Init) refers to stm32f3xx_hal_cortex.o(i.HAL_NVIC_SetPriorityGrouping) for HAL_NVIC_SetPriorityGrouping
    stm32f3xx_hal.o(i.HAL_Init) refers to stm32f3xx_hal.o(i.HAL_InitTick) for HAL_InitTick
    stm32f3xx_hal.o(i.HAL_Init) refers to stm32f3xx_hal_msp.o(i.HAL_MspInit) for HAL_MspInit
    stm32f3xx_hal.o(i.HAL_InitTick) refers to stm32f3xx_hal_cortex.o(i.HAL_SYSTICK_Config) for HAL_SYSTICK_Config
    stm32f3xx_hal.o(i.HAL_InitTick) refers to stm32f3xx_hal_cortex.o(i.HAL_NVIC_SetPriority) for HAL_NVIC_SetPriority
    stm32f3xx_hal.o(i.HAL_InitTick) refers to stm32f3xx_hal.o(.data) for .data
    stm32f3xx_hal.o(i.HAL_InitTick) refers to system_stm32f3xx.o(.data) for SystemCoreClock
    stm32f3xx_hal.o(i.HAL_SetTickFreq) refers to stm32f3xx_hal.o(i.HAL_InitTick) for HAL_InitTick
    stm32f3xx_hal.o(i.HAL_SetTickFreq) refers to stm32f3xx_hal.o(.data) for .data
    stm32f3xx_hal_rcc.o(i.HAL_RCC_ClockConfig) refers to stm32f3xx_hal.o(i.HAL_GetTick) for HAL_GetTick
    stm32f3xx_hal_rcc.o(i.HAL_RCC_ClockConfig) refers to stm32f3xx_hal_rcc.o(i.HAL_RCC_GetSysClockFreq) for HAL_RCC_GetSysClockFreq
    stm32f3xx_hal_rcc.o(i.HAL_RCC_ClockConfig) refers to stm32f3xx_hal.o(i.HAL_InitTick) for HAL_InitTick
    stm32f3xx_hal_rcc.o(i.HAL_RCC_ClockConfig) refers to system_stm32f3xx.o(.constdata) for AHBPrescTable
    stm32f3xx_hal_rcc.o(i.HAL_RCC_ClockConfig) refers to system_stm32f3xx.o(.data) for SystemCoreClock
    stm32f3xx_hal_rcc.o(i.HAL_RCC_DeInit) refers to stm32f3xx_hal.o(i.HAL_GetTick) for HAL_GetTick
    stm32f3xx_hal_rcc.o(i.HAL_RCC_DeInit) refers to stm32f3xx_hal.o(i.HAL_InitTick) for HAL_InitTick
    stm32f3xx_hal_rcc.o(i.HAL_RCC_DeInit) refers to system_stm32f3xx.o(.data) for SystemCoreClock
    stm32f3xx_hal_rcc.o(i.HAL_RCC_GetHCLKFreq) refers to system_stm32f3xx.o(.data) for SystemCoreClock
    stm32f3xx_hal_rcc.o(i.HAL_RCC_GetPCLK1Freq) refers to system_stm32f3xx.o(.data) for SystemCoreClock
    stm32f3xx_hal_rcc.o(i.HAL_RCC_GetPCLK1Freq) refers to system_stm32f3xx.o(.constdata) for APBPrescTable
    stm32f3xx_hal_rcc.o(i.HAL_RCC_GetPCLK2Freq) refers to system_stm32f3xx.o(.data) for SystemCoreClock
    stm32f3xx_hal_rcc.o(i.HAL_RCC_GetPCLK2Freq) refers to system_stm32f3xx.o(.constdata) for APBPrescTable
    stm32f3xx_hal_rcc.o(i.HAL_RCC_GetSysClockFreq) refers to stm32f3xx_hal_rcc.o(.constdata) for .constdata
    stm32f3xx_hal_rcc.o(i.HAL_RCC_MCOConfig) refers to stm32f3xx_hal_gpio.o(i.HAL_GPIO_Init) for HAL_GPIO_Init
    stm32f3xx_hal_rcc.o(i.HAL_RCC_NMI_IRQHandler) refers to stm32f3xx_hal_rcc.o(i.HAL_RCC_CSSCallback) for HAL_RCC_CSSCallback
    stm32f3xx_hal_rcc.o(i.HAL_RCC_OscConfig) refers to stm32f3xx_hal.o(i.HAL_GetTick) for HAL_GetTick
    stm32f3xx_hal_rcc_ex.o(i.HAL_RCCEx_GetPeriphCLKFreq) refers to memcpya.o(.text) for __aeabi_memcpy4
    stm32f3xx_hal_rcc_ex.o(i.HAL_RCCEx_GetPeriphCLKFreq) refers to stm32f3xx_hal_rcc_ex.o(i.RCC_GetPLLCLKFreq) for RCC_GetPLLCLKFreq
    stm32f3xx_hal_rcc_ex.o(i.HAL_RCCEx_GetPeriphCLKFreq) refers to stm32f3xx_hal_rcc.o(i.HAL_RCC_GetPCLK2Freq) for HAL_RCC_GetPCLK2Freq
    stm32f3xx_hal_rcc_ex.o(i.HAL_RCCEx_GetPeriphCLKFreq) refers to stm32f3xx_hal_rcc.o(i.HAL_RCC_GetSysClockFreq) for HAL_RCC_GetSysClockFreq
    stm32f3xx_hal_rcc_ex.o(i.HAL_RCCEx_GetPeriphCLKFreq) refers to stm32f3xx_hal_rcc.o(i.HAL_RCC_GetPCLK1Freq) for HAL_RCC_GetPCLK1Freq
    stm32f3xx_hal_rcc_ex.o(i.HAL_RCCEx_GetPeriphCLKFreq) refers to stm32f3xx_hal_rcc_ex.o(.constdata) for .constdata
    stm32f3xx_hal_rcc_ex.o(i.HAL_RCCEx_GetPeriphCLKFreq) refers to system_stm32f3xx.o(.data) for SystemCoreClock
    stm32f3xx_hal_rcc_ex.o(i.HAL_RCCEx_PeriphCLKConfig) refers to stm32f3xx_hal.o(i.HAL_GetTick) for HAL_GetTick
    stm32f3xx_hal_gpio.o(i.HAL_GPIO_EXTI_IRQHandler) refers to stm32f3xx_hal_gpio.o(i.HAL_GPIO_EXTI_Callback) for HAL_GPIO_EXTI_Callback
    stm32f3xx_hal_dma.o(i.HAL_DMA_DeInit) refers to stm32f3xx_hal_dma.o(i.DMA_CalcBaseAndBitshift) for DMA_CalcBaseAndBitshift
    stm32f3xx_hal_dma.o(i.HAL_DMA_Init) refers to stm32f3xx_hal_dma.o(i.DMA_CalcBaseAndBitshift) for DMA_CalcBaseAndBitshift
    stm32f3xx_hal_dma.o(i.HAL_DMA_PollForTransfer) refers to stm32f3xx_hal.o(i.HAL_GetTick) for HAL_GetTick
    stm32f3xx_hal_dma.o(i.HAL_DMA_Start) refers to stm32f3xx_hal_dma.o(i.DMA_SetConfig) for DMA_SetConfig
    stm32f3xx_hal_dma.o(i.HAL_DMA_Start_IT) refers to stm32f3xx_hal_dma.o(i.DMA_SetConfig) for DMA_SetConfig
    stm32f3xx_hal_cortex.o(i.HAL_NVIC_SetPriority) refers to stm32f3xx_hal_cortex.o(i.NVIC_SetPriority) for NVIC_SetPriority
    stm32f3xx_hal_cortex.o(i.HAL_SYSTICK_Config) refers to stm32f3xx_hal_cortex.o(i.NVIC_SetPriority) for NVIC_SetPriority
    stm32f3xx_hal_cortex.o(i.HAL_SYSTICK_IRQHandler) refers to stm32f3xx_hal_cortex.o(i.HAL_SYSTICK_Callback) for HAL_SYSTICK_Callback
    stm32f3xx_hal_pwr_ex.o(i.HAL_PWR_PVD_IRQHandler) refers to stm32f3xx_hal_pwr_ex.o(i.HAL_PWR_PVDCallback) for HAL_PWR_PVDCallback
    stm32f3xx_hal_flash.o(i.FLASH_Program_HalfWord) refers to stm32f3xx_hal_flash.o(.bss) for .bss
    stm32f3xx_hal_flash.o(i.FLASH_SetErrorCode) refers to stm32f3xx_hal_flash.o(.bss) for .bss
    stm32f3xx_hal_flash.o(i.FLASH_WaitForLastOperation) refers to stm32f3xx_hal.o(i.HAL_GetTick) for HAL_GetTick
    stm32f3xx_hal_flash.o(i.FLASH_WaitForLastOperation) refers to stm32f3xx_hal_flash.o(i.FLASH_SetErrorCode) for FLASH_SetErrorCode
    stm32f3xx_hal_flash.o(i.HAL_FLASH_GetError) refers to stm32f3xx_hal_flash.o(.bss) for .bss
    stm32f3xx_hal_flash.o(i.HAL_FLASH_IRQHandler) refers to stm32f3xx_hal_flash.o(i.FLASH_SetErrorCode) for FLASH_SetErrorCode
    stm32f3xx_hal_flash.o(i.HAL_FLASH_IRQHandler) refers to stm32f3xx_hal_flash.o(i.HAL_FLASH_OperationErrorCallback) for HAL_FLASH_OperationErrorCallback
    stm32f3xx_hal_flash.o(i.HAL_FLASH_IRQHandler) refers to stm32f3xx_hal_flash.o(i.FLASH_Program_HalfWord) for FLASH_Program_HalfWord
    stm32f3xx_hal_flash.o(i.HAL_FLASH_IRQHandler) refers to stm32f3xx_hal_flash.o(i.HAL_FLASH_EndOfOperationCallback) for HAL_FLASH_EndOfOperationCallback
    stm32f3xx_hal_flash.o(i.HAL_FLASH_IRQHandler) refers to stm32f3xx_hal_flash_ex.o(i.FLASH_PageErase) for FLASH_PageErase
    stm32f3xx_hal_flash.o(i.HAL_FLASH_IRQHandler) refers to stm32f3xx_hal_flash.o(.bss) for .bss
    stm32f3xx_hal_flash.o(i.HAL_FLASH_OB_Launch) refers to stm32f3xx_hal_flash.o(i.FLASH_WaitForLastOperation) for FLASH_WaitForLastOperation
    stm32f3xx_hal_flash.o(i.HAL_FLASH_Program) refers to stm32f3xx_hal_flash.o(i.FLASH_WaitForLastOperation) for FLASH_WaitForLastOperation
    stm32f3xx_hal_flash.o(i.HAL_FLASH_Program) refers to llushr.o(.text) for __aeabi_llsr
    stm32f3xx_hal_flash.o(i.HAL_FLASH_Program) refers to stm32f3xx_hal_flash.o(i.FLASH_Program_HalfWord) for FLASH_Program_HalfWord
    stm32f3xx_hal_flash.o(i.HAL_FLASH_Program) refers to stm32f3xx_hal_flash.o(.bss) for .bss
    stm32f3xx_hal_flash.o(i.HAL_FLASH_Program_IT) refers to stm32f3xx_hal_flash.o(i.FLASH_Program_HalfWord) for FLASH_Program_HalfWord
    stm32f3xx_hal_flash.o(i.HAL_FLASH_Program_IT) refers to stm32f3xx_hal_flash.o(.bss) for .bss
    stm32f3xx_hal_flash_ex.o(i.FLASH_MassErase) refers to stm32f3xx_hal_flash.o(.bss) for pFlash
    stm32f3xx_hal_flash_ex.o(i.FLASH_OB_DisableWRP) refers to stm32f3xx_hal_flash.o(i.FLASH_WaitForLastOperation) for FLASH_WaitForLastOperation
    stm32f3xx_hal_flash_ex.o(i.FLASH_OB_DisableWRP) refers to stm32f3xx_hal_flash_ex.o(i.HAL_FLASHEx_OBErase) for HAL_FLASHEx_OBErase
    stm32f3xx_hal_flash_ex.o(i.FLASH_OB_DisableWRP) refers to stm32f3xx_hal_flash.o(.bss) for pFlash
    stm32f3xx_hal_flash_ex.o(i.FLASH_OB_EnableWRP) refers to stm32f3xx_hal_flash.o(i.FLASH_WaitForLastOperation) for FLASH_WaitForLastOperation
    stm32f3xx_hal_flash_ex.o(i.FLASH_OB_EnableWRP) refers to stm32f3xx_hal_flash_ex.o(i.HAL_FLASHEx_OBErase) for HAL_FLASHEx_OBErase
    stm32f3xx_hal_flash_ex.o(i.FLASH_OB_EnableWRP) refers to stm32f3xx_hal_flash.o(.bss) for pFlash
    stm32f3xx_hal_flash_ex.o(i.FLASH_OB_RDP_LevelConfig) refers to stm32f3xx_hal_flash.o(i.FLASH_WaitForLastOperation) for FLASH_WaitForLastOperation
    stm32f3xx_hal_flash_ex.o(i.FLASH_OB_RDP_LevelConfig) refers to stm32f3xx_hal_flash.o(.bss) for pFlash
    stm32f3xx_hal_flash_ex.o(i.FLASH_PageErase) refers to stm32f3xx_hal_flash.o(.bss) for pFlash
    stm32f3xx_hal_flash_ex.o(i.HAL_FLASHEx_Erase) refers to stm32f3xx_hal_flash.o(i.FLASH_WaitForLastOperation) for FLASH_WaitForLastOperation
    stm32f3xx_hal_flash_ex.o(i.HAL_FLASHEx_Erase) refers to stm32f3xx_hal_flash_ex.o(i.FLASH_MassErase) for FLASH_MassErase
    stm32f3xx_hal_flash_ex.o(i.HAL_FLASHEx_Erase) refers to stm32f3xx_hal_flash_ex.o(i.FLASH_PageErase) for FLASH_PageErase
    stm32f3xx_hal_flash_ex.o(i.HAL_FLASHEx_Erase) refers to stm32f3xx_hal_flash.o(.bss) for pFlash
    stm32f3xx_hal_flash_ex.o(i.HAL_FLASHEx_Erase_IT) refers to stm32f3xx_hal_flash_ex.o(i.FLASH_PageErase) for FLASH_PageErase
    stm32f3xx_hal_flash_ex.o(i.HAL_FLASHEx_Erase_IT) refers to stm32f3xx_hal_flash_ex.o(i.FLASH_MassErase) for FLASH_MassErase
    stm32f3xx_hal_flash_ex.o(i.HAL_FLASHEx_Erase_IT) refers to stm32f3xx_hal_flash.o(.bss) for pFlash
    stm32f3xx_hal_flash_ex.o(i.HAL_FLASHEx_OBErase) refers to stm32f3xx_hal_flash_ex.o(i.FLASH_OB_GetRDP) for FLASH_OB_GetRDP
    stm32f3xx_hal_flash_ex.o(i.HAL_FLASHEx_OBErase) refers to stm32f3xx_hal_flash.o(i.FLASH_WaitForLastOperation) for FLASH_WaitForLastOperation
    stm32f3xx_hal_flash_ex.o(i.HAL_FLASHEx_OBErase) refers to stm32f3xx_hal_flash_ex.o(i.FLASH_OB_RDP_LevelConfig) for FLASH_OB_RDP_LevelConfig
    stm32f3xx_hal_flash_ex.o(i.HAL_FLASHEx_OBErase) refers to stm32f3xx_hal_flash.o(.bss) for pFlash
    stm32f3xx_hal_flash_ex.o(i.HAL_FLASHEx_OBGetConfig) refers to stm32f3xx_hal_flash_ex.o(i.FLASH_OB_GetRDP) for FLASH_OB_GetRDP
    stm32f3xx_hal_flash_ex.o(i.HAL_FLASHEx_OBProgram) refers to stm32f3xx_hal_flash_ex.o(i.FLASH_OB_DisableWRP) for FLASH_OB_DisableWRP
    stm32f3xx_hal_flash_ex.o(i.HAL_FLASHEx_OBProgram) refers to stm32f3xx_hal_flash_ex.o(i.FLASH_OB_EnableWRP) for FLASH_OB_EnableWRP
    stm32f3xx_hal_flash_ex.o(i.HAL_FLASHEx_OBProgram) refers to stm32f3xx_hal_flash_ex.o(i.FLASH_OB_RDP_LevelConfig) for FLASH_OB_RDP_LevelConfig
    stm32f3xx_hal_flash_ex.o(i.HAL_FLASHEx_OBProgram) refers to stm32f3xx_hal_flash.o(i.FLASH_WaitForLastOperation) for FLASH_WaitForLastOperation
    stm32f3xx_hal_flash_ex.o(i.HAL_FLASHEx_OBProgram) refers to stm32f3xx_hal_flash.o(.bss) for pFlash
    stm32f3xx_hal_crc.o(i.HAL_CRC_Accumulate) refers to stm32f3xx_hal_crc.o(i.CRC_Handle_8) for CRC_Handle_8
    stm32f3xx_hal_crc.o(i.HAL_CRC_Accumulate) refers to stm32f3xx_hal_crc.o(i.CRC_Handle_16) for CRC_Handle_16
    stm32f3xx_hal_crc.o(i.HAL_CRC_Calculate) refers to stm32f3xx_hal_crc.o(i.CRC_Handle_8) for CRC_Handle_8
    stm32f3xx_hal_crc.o(i.HAL_CRC_Calculate) refers to stm32f3xx_hal_crc.o(i.CRC_Handle_16) for CRC_Handle_16
    stm32f3xx_hal_crc.o(i.HAL_CRC_DeInit) refers to stm32f3xx_hal_crc.o(i.HAL_CRC_MspDeInit) for HAL_CRC_MspDeInit
    stm32f3xx_hal_crc.o(i.HAL_CRC_Init) refers to stm32f3xx_hal_crc.o(i.HAL_CRC_MspInit) for HAL_CRC_MspInit
    stm32f3xx_hal_crc.o(i.HAL_CRC_Init) refers to stm32f3xx_hal_crc_ex.o(i.HAL_CRCEx_Polynomial_Set) for HAL_CRCEx_Polynomial_Set
    stm32f3xx_hal_iwdg.o(i.HAL_IWDG_Init) refers to stm32f3xx_hal.o(i.HAL_GetTick) for HAL_GetTick
    system_stm32f3xx.o(i.SystemCoreClockUpdate) refers to system_stm32f3xx.o(.data) for .data
    system_stm32f3xx.o(i.SystemCoreClockUpdate) refers to system_stm32f3xx.o(.constdata) for .constdata
    m2g.o(i.HAL_USART_User) refers to stm32f3xx_hal_cortex.o(i.HAL_NVIC_DisableIRQ) for HAL_NVIC_DisableIRQ
    m2g.o(i.HAL_USART_User) refers to stm32f3xx_hal_uart.o(i.HAL_UART_IRQHandler) for HAL_UART_IRQHandler
    m2g.o(i.HAL_USART_User) refers to stm32f3xx_hal_uart.o(i.HAL_UART_DMAStop) for HAL_UART_DMAStop
    m2g.o(i.HAL_USART_User) refers to stm32f3xx_hal_uart.o(i.HAL_UART_Receive_DMA) for HAL_UART_Receive_DMA
    m2g.o(i.HAL_USART_User) refers to stm32f3xx_hal_cortex.o(i.HAL_NVIC_EnableIRQ) for HAL_NVIC_EnableIRQ
    m2g.o(i.HAL_USART_User) refers to main.o(.bss) for huart3
    m2g.o(i.HAL_USART_User) refers to main.o(.bss) for hdma_usart3_rx
    m2g.o(i.HAL_USART_User) refers to main.o(.data) for rx_cnt1
    m2g.o(i.HAL_USART_User) refers to m2g.o(.bss) for .bss
    m2g.o(i.Heart_BeatLoop) refers to strstr.o(.text) for strstr
    m2g.o(i.Heart_BeatLoop) refers to m2g.o(i.m26_send) for m26_send
    m2g.o(i.Heart_BeatLoop) refers to memseta.o(.text) for __aeabi_memclr
    m2g.o(i.Heart_BeatLoop) refers to server_data.o(i.DataToServerHeartBeat) for DataToServerHeartBeat
    m2g.o(i.Heart_BeatLoop) refers to m2g.o(.data) for .data
    m2g.o(i.Heart_BeatLoop) refers to m2g.o(.bss) for .bss
    m2g.o(i.Heart_BeatLoop) refers to main.o(.data) for blackuart
    m2g.o(i.Heart_BeatLoop) refers to main.o(.data) for M26_State
    m2g.o(i.Query_Init) refers to m2g.o(i.m26_send) for m26_send
    m2g.o(i.Query_Parse) refers to m2g.o(i.m26_send) for m26_send
    m2g.o(i.Query_Parse) refers to stm32f3xx_hal_uart.o(i.HAL_UART_Receive_DMA) for HAL_UART_Receive_DMA
    m2g.o(i.Query_Parse) refers to memseta.o(.text) for __aeabi_memclr
    m2g.o(i.Query_Parse) refers to main.o(.data) for M26_State
    m2g.o(i.Query_Parse) refers to m2g.o(.bss) for .bss
    m2g.o(i.Query_Parse) refers to main.o(.data) for blackuart
    m2g.o(i.Query_Parse) refers to main.o(.bss) for huart3
    m2g.o(i.ReceiveData_Parse) refers to strstr.o(.text) for strstr
    m2g.o(i.ReceiveData_Parse) refers to memseta.o(.text) for __aeabi_memclr
    m2g.o(i.ReceiveData_Parse) refers to main.o(i.Delay_10ms) for Delay_10ms
    m2g.o(i.ReceiveData_Parse) refers to m2g.o(i.Query_Parse) for Query_Parse
    m2g.o(i.ReceiveData_Parse) refers to m2g.o(.bss) for .bss
    m2g.o(i.ReceiveData_Parse) refers to m2g.o(.data) for .data
    m2g.o(i.ReceiveData_Parse) refers to main.o(.data) for blackuart
    m2g.o(i.ReceiveData_Parse) refers to main.o(.data) for M26_State
    m2g.o(i.m26_Loop) refers to m2g.o(i.ReceiveData_Parse) for ReceiveData_Parse
    m2g.o(i.m26_Loop) refers to m2g.o(i.m26_restart) for m26_restart
    m2g.o(i.m26_Loop) refers to m2g.o(i.m28_SendLoop) for m28_SendLoop
    m2g.o(i.m26_Loop) refers to m2g.o(i.m26_Status_ReportLoop) for m26_Status_ReportLoop
    m2g.o(i.m26_Loop) refers to m2g.o(i.Heart_BeatLoop) for Heart_BeatLoop
    m2g.o(i.m26_Loop) refers to m2g.o(.bss) for .bss
    m2g.o(i.m26_Status_ReportLoop) refers to m2g.o(i.m26_send) for m26_send
    m2g.o(i.m26_Status_ReportLoop) refers to strstr.o(.text) for strstr
    m2g.o(i.m26_Status_ReportLoop) refers to memseta.o(.text) for __aeabi_memclr
    m2g.o(i.m26_Status_ReportLoop) refers to server_data.o(i.Status_ReportMessage) for Status_ReportMessage
    m2g.o(i.m26_Status_ReportLoop) refers to m2g.o(.data) for .data
    m2g.o(i.m26_Status_ReportLoop) refers to m2g.o(.bss) for .bss
    m2g.o(i.m26_Status_ReportLoop) refers to main.o(.data) for blackuart
    m2g.o(i.m26_Status_ReportLoop) refers to main.o(.data) for M26_State
    m2g.o(i.m26_restart) refers to m2g.o(i.Query_Init) for Query_Init
    m2g.o(i.m26_restart) refers to m2g.o(i.m26_send) for m26_send
    m2g.o(i.m26_restart) refers to main.o(.data) for M26_State
    m2g.o(i.m26_restart) refers to m2g.o(.bss) for .bss
    m2g.o(i.m26_restart) refers to m2g.o(.data) for .data
    m2g.o(i.m26_send) refers to strlen.o(.text) for strlen
    m2g.o(i.m26_send) refers to stm32f3xx_hal_uart.o(i.HAL_UART_Transmit_DMA) for HAL_UART_Transmit_DMA
    m2g.o(i.m26_send) refers to main.o(.bss) for huart3
    m2g.o(i.m28_SendLoop) refers to m2g.o(i.m26_send) for m26_send
    m2g.o(i.m28_SendLoop) refers to strstr.o(.text) for strstr
    m2g.o(i.m28_SendLoop) refers to server_data.o(i.DataToServerRegister) for DataToServerRegister
    m2g.o(i.m28_SendLoop) refers to main.o(i.M26_PowerOn) for M26_PowerOn
    m2g.o(i.m28_SendLoop) refers to m2g.o(i.m26_restart) for m26_restart
    m2g.o(i.m28_SendLoop) refers to server_data.o(i.Push_Net_Config) for Push_Net_Config
    m2g.o(i.m28_SendLoop) refers to server_data.o(i.NetConfig_Parse) for NetConfig_Parse
    m2g.o(i.m28_SendLoop) refers to server_data.o(i.Push_Sw_Config) for Push_Sw_Config
    m2g.o(i.m28_SendLoop) refers to server_data.o(i.SW_Netconfig) for SW_Netconfig
    m2g.o(i.m28_SendLoop) refers to main.o(.data) for M26_State
    m2g.o(i.m28_SendLoop) refers to m2g.o(.bss) for .bss
    m2g.o(i.m28_SendLoop) refers to m2g.o(.data) for .data
    m2g.o(i.m28_SendLoop) refers to main.o(.data) for rx_cnt1
    touchkey.o(i.Key_ClearEvent) refers to touchkey.o(.data) for .data
    touchkey.o(i.Key_GetEvent) refers to touchkey.o(.data) for .data
    touchkey.o(i.Key_GetEvent) refers to touchkey.o(.bss) for .bss
    touchkey.o(i.Key_Loop) refers to touchkey.o(i.Key_ReadFactory) for Key_ReadFactory
    touchkey.o(i.Key_Loop) refers to touchkey.o(i.Key_Press) for Key_Press
    touchkey.o(i.Key_Loop) refers to touchkey.o(.data) for .data
    touchkey.o(i.Key_PeriodHandle) refers to touchkey.o(i.Key_Loop) for Key_Loop
    touchkey.o(i.Key_PeriodHandle) refers to touchkey.o(i.Key_GetEvent) for Key_GetEvent
    touchkey.o(i.Key_PeriodHandle) refers to system_config.o(i.Key_HandleByUser) for Key_HandleByUser
    touchkey.o(i.Key_PeriodHandle) refers to touchkey.o(.data) for .data
    touchkey.o(i.Key_PinConfig) refers to stm32f3xx_hal_gpio.o(i.HAL_GPIO_Init) for HAL_GPIO_Init
    touchkey.o(i.Key_Press) refers to touchkey.o(.bss) for .bss
    touchkey.o(i.Key_Press) refers to touchkey.o(.data) for .data
    touchkey.o(i.Key_ReadFactory) refers to stm32f3xx_hal_gpio.o(i.HAL_GPIO_ReadPin) for HAL_GPIO_ReadPin
    touchkey.o(i.Key_VirtualInit) refers to touchkey.o(.data) for .data
    touchkey.o(i.Key_VirtualInit) refers to touchkey.o(.bss) for .bss
    touchkey.o(i.TouchKey_Loop) refers to touchkey.o(.data) for .data
    touchkey.o(i.touchBSP) refers to stm32f3xx_hal_gpio.o(i.HAL_GPIO_Init) for HAL_GPIO_Init
    touchkey.o(i.touchkey_register) refers to touchkey.o(.data) for .data
    touchkey.o(.data) refers to touchkey.o(.conststring) for .conststring
    server_data.o(i.CRC_Hradware_Init) refers to stm32f3xx_hal_crc.o(i.HAL_CRC_Init) for HAL_CRC_Init
    server_data.o(i.CRC_Hradware_Init) refers to main.o(i.Error_Handler) for Error_Handler
    server_data.o(i.CRC_Hradware_Init) refers to server_data.o(.bss) for .bss
    server_data.o(i.DataToServerHeartBeat) refers to memseta.o(.text) for __aeabi_memclr4
    server_data.o(i.DataToServerHeartBeat) refers to crc32.o(i.crc32) for crc32
    server_data.o(i.DataToServerHeartBeat) refers to stm32f3xx_hal_uart.o(i.HAL_UART_Transmit_DMA) for HAL_UART_Transmit_DMA
    server_data.o(i.DataToServerHeartBeat) refers to server_data.o(.bss) for .bss
    server_data.o(i.DataToServerHeartBeat) refers to server_data.o(.data) for .data
    server_data.o(i.DataToServerHeartBeat) refers to main.o(.bss) for huart3
    server_data.o(i.DataToServerRegister) refers to stm32f3xx_hal.o(i.HAL_GetDEVID) for HAL_GetDEVID
    server_data.o(i.DataToServerRegister) refers to memseta.o(.text) for __aeabi_memclr
    server_data.o(i.DataToServerRegister) refers to crc32.o(i.crc32) for crc32
    server_data.o(i.DataToServerRegister) refers to stm32f3xx_hal_uart.o(i.HAL_UART_Transmit_DMA) for HAL_UART_Transmit_DMA
    server_data.o(i.DataToServerRegister) refers to server_data.o(.bss) for .bss
    server_data.o(i.DataToServerRegister) refers to server_data.o(.data) for .data
    server_data.o(i.DataToServerRegister) refers to main.o(.data) for blackuart
    server_data.o(i.DataToServerRegister) refers to main.o(.bss) for huart3
    server_data.o(i.NetConfig_Parse) refers to memcpya.o(.text) for __aeabi_memcpy
    server_data.o(i.NetConfig_Parse) refers to main.o(.data) for blackuart
    server_data.o(i.Push_Net_Config) refers to memseta.o(.text) for __aeabi_memclr4
    server_data.o(i.Push_Net_Config) refers to memcpya.o(.text) for __aeabi_memcpy4
    server_data.o(i.Push_Net_Config) refers to crc32.o(i.crc32) for crc32
    server_data.o(i.Push_Net_Config) refers to stm32f3xx_hal_uart.o(i.HAL_UART_Transmit_DMA) for HAL_UART_Transmit_DMA
    server_data.o(i.Push_Net_Config) refers to server_data.o(.data) for .data
    server_data.o(i.Push_Net_Config) refers to server_data.o(.bss) for .bss
    server_data.o(i.Push_Net_Config) refers to main.o(.data) for blackuart
    server_data.o(i.Push_Net_Config) refers to main.o(.bss) for huart3
    server_data.o(i.Push_Sw_Config) refers to strlen.o(.text) for strlen
    server_data.o(i.Push_Sw_Config) refers to memcpya.o(.text) for __aeabi_memcpy
    server_data.o(i.Push_Sw_Config) refers to memseta.o(.text) for __aeabi_memclr4
    server_data.o(i.Push_Sw_Config) refers to crc32.o(i.crc32) for crc32
    server_data.o(i.Push_Sw_Config) refers to stm32f3xx_hal_uart.o(i.HAL_UART_Transmit_DMA) for HAL_UART_Transmit_DMA
    server_data.o(i.Push_Sw_Config) refers to server_data.o(.bss) for .bss
    server_data.o(i.Push_Sw_Config) refers to server_data.o(.data) for .data
    server_data.o(i.Push_Sw_Config) refers to main.o(.bss) for huart3
    server_data.o(i.SW_Netconfig) refers to memcpya.o(.text) for __aeabi_memcpy
    server_data.o(i.SW_Netconfig) refers to main.o(.data) for blackuart
    server_data.o(i.Status_ReportMessage) refers to memseta.o(.text) for __aeabi_memclr4
    server_data.o(i.Status_ReportMessage) refers to memcpya.o(.text) for __aeabi_memcpy4
    server_data.o(i.Status_ReportMessage) refers to crc32.o(i.crc32) for crc32
    server_data.o(i.Status_ReportMessage) refers to stm32f3xx_hal_uart.o(i.HAL_UART_Transmit_DMA) for HAL_UART_Transmit_DMA
    server_data.o(i.Status_ReportMessage) refers to server_data.o(.bss) for .bss
    server_data.o(i.Status_ReportMessage) refers to server_data.o(.data) for .data
    server_data.o(i.Status_ReportMessage) refers to main.o(.bss) for huart3
    crc32.o(i.crc32) refers to crc32.o(.data) for .data
    sqrt.o(i.__hardfp_sqrt) refers (Special) to iusefp.o(.text) for __I$use$fp
    sqrt.o(i.__hardfp_sqrt) refers to dsqrt.o(.text) for _dsqrt
    sqrt.o(i.__hardfp_sqrt) refers to errno.o(i.__set_errno) for __set_errno
    sqrt.o(i.__softfp_sqrt) refers (Special) to iusefp.o(.text) for __I$use$fp
    sqrt.o(i.__softfp_sqrt) refers to dsqrt.o(.text) for _dsqrt
    sqrt.o(i.__softfp_sqrt) refers to errno.o(i.__set_errno) for __set_errno
    sqrt.o(i.sqrt) refers (Special) to iusefp.o(.text) for __I$use$fp
    sqrt.o(i.sqrt) refers to dsqrt.o(.text) for _dsqrt
    sqrt.o(i.sqrt) refers to errno.o(i.__set_errno) for __set_errno
    sqrt_x.o(i.____hardfp_sqrt$lsc) refers (Special) to iusefp.o(.text) for __I$use$fp
    sqrt_x.o(i.____hardfp_sqrt$lsc) refers to cdcmple.o(.text) for __aeabi_cdcmple
    sqrt_x.o(i.____hardfp_sqrt$lsc) refers to errno.o(i.__set_errno) for __set_errno
    sqrt_x.o(i.____hardfp_sqrt$lsc) refers to dsqrt.o(.text) for _dsqrt
    sqrt_x.o(i.____softfp_sqrt$lsc) refers (Special) to iusefp.o(.text) for __I$use$fp
    sqrt_x.o(i.____softfp_sqrt$lsc) refers to cdcmple.o(.text) for __aeabi_cdcmple
    sqrt_x.o(i.____softfp_sqrt$lsc) refers to errno.o(i.__set_errno) for __set_errno
    sqrt_x.o(i.____softfp_sqrt$lsc) refers to dsqrt.o(.text) for _dsqrt
    sqrt_x.o(i.__sqrt$lsc) refers (Special) to iusefp.o(.text) for __I$use$fp
    sqrt_x.o(i.__sqrt$lsc) refers to cdcmple.o(.text) for __aeabi_cdcmple
    sqrt_x.o(i.__sqrt$lsc) refers to errno.o(i.__set_errno) for __set_errno
    sqrt_x.o(i.__sqrt$lsc) refers to dsqrt.o(.text) for _dsqrt
    entry.o(.ARM.Collect$$$$00000000) refers (Special) to entry10a.o(.ARM.Collect$$$$0000000D) for __rt_final_cpp
    entry.o(.ARM.Collect$$$$00000000) refers (Special) to entry11a.o(.ARM.Collect$$$$0000000F) for __rt_final_exit
    entry.o(.ARM.Collect$$$$00000000) refers (Special) to entry7b.o(.ARM.Collect$$$$00000008) for _main_clock
    entry.o(.ARM.Collect$$$$00000000) refers (Special) to entry8b.o(.ARM.Collect$$$$0000000A) for _main_cpp_init
    entry.o(.ARM.Collect$$$$00000000) refers (Special) to entry9a.o(.ARM.Collect$$$$0000000B) for _main_init
    entry.o(.ARM.Collect$$$$00000000) refers (Special) to entry5.o(.ARM.Collect$$$$00000004) for _main_scatterload
    entry.o(.ARM.Collect$$$$00000000) refers (Special) to entry2.o(.ARM.Collect$$$$00000001) for _main_stk
    printfb.o(i.__0fprintf$bare) refers to printfb.o(i._printf_core) for _printf_core
    printfb.o(i.__0fprintf$bare) refers to fputc.o(i.fputc) for fputc
    printfb.o(i.__0printf$bare) refers to printfb.o(i._printf_core) for _printf_core
    printfb.o(i.__0printf$bare) refers to fputc.o(i.fputc) for fputc
    printfb.o(i.__0printf$bare) refers to stdout.o(.data) for __stdout
    printfb.o(i.__0snprintf$bare) refers to printfb.o(i._printf_core) for _printf_core
    printfb.o(i.__0snprintf$bare) refers to printfb.o(i._snputc) for _snputc
    printfb.o(i.__0sprintf$bare) refers to printfb.o(i._printf_core) for _printf_core
    printfb.o(i.__0sprintf$bare) refers to printfb.o(i._sputc) for _sputc
    printfb.o(i.__0vfprintf$bare) refers to printfb.o(i._printf_core) for _printf_core
    printfb.o(i.__0vfprintf$bare) refers to fputc.o(i.fputc) for fputc
    printfb.o(i.__0vprintf$bare) refers to printfb.o(i._printf_core) for _printf_core
    printfb.o(i.__0vprintf$bare) refers to fputc.o(i.fputc) for fputc
    printfb.o(i.__0vprintf$bare) refers to stdout.o(.data) for __stdout
    printfb.o(i.__0vsnprintf$bare) refers to printfb.o(i._printf_core) for _printf_core
    printfb.o(i.__0vsnprintf$bare) refers to printfb.o(i._snputc) for _snputc
    printfb.o(i.__0vsprintf$bare) refers to printfb.o(i._printf_core) for _printf_core
    printfb.o(i.__0vsprintf$bare) refers to printfb.o(i._sputc) for _sputc
    printf0.o(i.__0fprintf$0) refers to printf0.o(i._printf_core) for _printf_core
    printf0.o(i.__0fprintf$0) refers to fputc.o(i.fputc) for fputc
    printf0.o(i.__0printf$0) refers to printf0.o(i._printf_core) for _printf_core
    printf0.o(i.__0printf$0) refers to fputc.o(i.fputc) for fputc
    printf0.o(i.__0printf$0) refers to stdout.o(.data) for __stdout
    printf0.o(i.__0snprintf$0) refers to printf0.o(i._printf_core) for _printf_core
    printf0.o(i.__0snprintf$0) refers to printf0.o(i._snputc) for _snputc
    printf0.o(i.__0sprintf$0) refers to printf0.o(i._printf_core) for _printf_core
    printf0.o(i.__0sprintf$0) refers to printf0.o(i._sputc) for _sputc
    printf0.o(i.__0vfprintf$0) refers to printf0.o(i._printf_core) for _printf_core
    printf0.o(i.__0vfprintf$0) refers to fputc.o(i.fputc) for fputc
    printf0.o(i.__0vprintf$0) refers to printf0.o(i._printf_core) for _printf_core
    printf0.o(i.__0vprintf$0) refers to fputc.o(i.fputc) for fputc
    printf0.o(i.__0vprintf$0) refers to stdout.o(.data) for __stdout
    printf0.o(i.__0vsnprintf$0) refers to printf0.o(i._printf_core) for _printf_core
    printf0.o(i.__0vsnprintf$0) refers to printf0.o(i._snputc) for _snputc
    printf0.o(i.__0vsprintf$0) refers to printf0.o(i._printf_core) for _printf_core
    printf0.o(i.__0vsprintf$0) refers to printf0.o(i._sputc) for _sputc
    printf1.o(i.__0fprintf$1) refers to printf1.o(i._printf_core) for _printf_core
    printf1.o(i.__0fprintf$1) refers to fputc.o(i.fputc) for fputc
    printf1.o(i.__0printf$1) refers to printf1.o(i._printf_core) for _printf_core
    printf1.o(i.__0printf$1) refers to fputc.o(i.fputc) for fputc
    printf1.o(i.__0printf$1) refers to stdout.o(.data) for __stdout
    printf1.o(i.__0snprintf$1) refers to printf1.o(i._printf_core) for _printf_core
    printf1.o(i.__0snprintf$1) refers to printf1.o(i._snputc) for _snputc
    printf1.o(i.__0sprintf$1) refers to printf1.o(i._printf_core) for _printf_core
    printf1.o(i.__0sprintf$1) refers to printf1.o(i._sputc) for _sputc
    printf1.o(i.__0vfprintf$1) refers to printf1.o(i._printf_core) for _printf_core
    printf1.o(i.__0vfprintf$1) refers to fputc.o(i.fputc) for fputc
    printf1.o(i.__0vprintf$1) refers to printf1.o(i._printf_core) for _printf_core
    printf1.o(i.__0vprintf$1) refers to fputc.o(i.fputc) for fputc
    printf1.o(i.__0vprintf$1) refers to stdout.o(.data) for __stdout
    printf1.o(i.__0vsnprintf$1) refers to printf1.o(i._printf_core) for _printf_core
    printf1.o(i.__0vsnprintf$1) refers to printf1.o(i._snputc) for _snputc
    printf1.o(i.__0vsprintf$1) refers to printf1.o(i._printf_core) for _printf_core
    printf1.o(i.__0vsprintf$1) refers to printf1.o(i._sputc) for _sputc
    printf1.o(i._printf_core) refers to uidiv.o(.text) for __aeabi_uidivmod
    printf2.o(i.__0fprintf$2) refers to printf2.o(i._printf_core) for _printf_core
    printf2.o(i.__0fprintf$2) refers to fputc.o(i.fputc) for fputc
    printf2.o(i.__0printf$2) refers to printf2.o(i._printf_core) for _printf_core
    printf2.o(i.__0printf$2) refers to fputc.o(i.fputc) for fputc
    printf2.o(i.__0printf$2) refers to stdout.o(.data) for __stdout
    printf2.o(i.__0snprintf$2) refers to printf2.o(i._printf_core) for _printf_core
    printf2.o(i.__0snprintf$2) refers to printf2.o(i._snputc) for _snputc
    printf2.o(i.__0sprintf$2) refers to printf2.o(i._printf_core) for _printf_core
    printf2.o(i.__0sprintf$2) refers to printf2.o(i._sputc) for _sputc
    printf2.o(i.__0vfprintf$2) refers to printf2.o(i._printf_core) for _printf_core
    printf2.o(i.__0vfprintf$2) refers to fputc.o(i.fputc) for fputc
    printf2.o(i.__0vprintf$2) refers to printf2.o(i._printf_core) for _printf_core
    printf2.o(i.__0vprintf$2) refers to fputc.o(i.fputc) for fputc
    printf2.o(i.__0vprintf$2) refers to stdout.o(.data) for __stdout
    printf2.o(i.__0vsnprintf$2) refers to printf2.o(i._printf_core) for _printf_core
    printf2.o(i.__0vsnprintf$2) refers to printf2.o(i._snputc) for _snputc
    printf2.o(i.__0vsprintf$2) refers to printf2.o(i._printf_core) for _printf_core
    printf2.o(i.__0vsprintf$2) refers to printf2.o(i._sputc) for _sputc
    printf3.o(i.__0fprintf$3) refers to printf3.o(i._printf_core) for _printf_core
    printf3.o(i.__0fprintf$3) refers to fputc.o(i.fputc) for fputc
    printf3.o(i.__0printf$3) refers to printf3.o(i._printf_core) for _printf_core
    printf3.o(i.__0printf$3) refers to fputc.o(i.fputc) for fputc
    printf3.o(i.__0printf$3) refers to stdout.o(.data) for __stdout
    printf3.o(i.__0snprintf$3) refers to printf3.o(i._printf_core) for _printf_core
    printf3.o(i.__0snprintf$3) refers to printf3.o(i._snputc) for _snputc
    printf3.o(i.__0sprintf$3) refers to printf3.o(i._printf_core) for _printf_core
    printf3.o(i.__0sprintf$3) refers to printf3.o(i._sputc) for _sputc
    printf3.o(i.__0vfprintf$3) refers to printf3.o(i._printf_core) for _printf_core
    printf3.o(i.__0vfprintf$3) refers to fputc.o(i.fputc) for fputc
    printf3.o(i.__0vprintf$3) refers to printf3.o(i._printf_core) for _printf_core
    printf3.o(i.__0vprintf$3) refers to fputc.o(i.fputc) for fputc
    printf3.o(i.__0vprintf$3) refers to stdout.o(.data) for __stdout
    printf3.o(i.__0vsnprintf$3) refers to printf3.o(i._printf_core) for _printf_core
    printf3.o(i.__0vsnprintf$3) refers to printf3.o(i._snputc) for _snputc
    printf3.o(i.__0vsprintf$3) refers to printf3.o(i._printf_core) for _printf_core
    printf3.o(i.__0vsprintf$3) refers to printf3.o(i._sputc) for _sputc
    printf3.o(i._printf_core) refers to uidiv.o(.text) for __aeabi_uidivmod
    printf4.o(i.__0fprintf$4) refers to printf4.o(i._printf_core) for _printf_core
    printf4.o(i.__0fprintf$4) refers to fputc.o(i.fputc) for fputc
    printf4.o(i.__0printf$4) refers to printf4.o(i._printf_core) for _printf_core
    printf4.o(i.__0printf$4) refers to fputc.o(i.fputc) for fputc
    printf4.o(i.__0printf$4) refers to stdout.o(.data) for __stdout
    printf4.o(i.__0snprintf$4) refers to printf4.o(i._printf_core) for _printf_core
    printf4.o(i.__0snprintf$4) refers to printf4.o(i._snputc) for _snputc
    printf4.o(i.__0sprintf$4) refers to printf4.o(i._printf_core) for _printf_core
    printf4.o(i.__0sprintf$4) refers to printf4.o(i._sputc) for _sputc
    printf4.o(i.__0vfprintf$4) refers to printf4.o(i._printf_core) for _printf_core
    printf4.o(i.__0vfprintf$4) refers to fputc.o(i.fputc) for fputc
    printf4.o(i.__0vprintf$4) refers to printf4.o(i._printf_core) for _printf_core
    printf4.o(i.__0vprintf$4) refers to fputc.o(i.fputc) for fputc
    printf4.o(i.__0vprintf$4) refers to stdout.o(.data) for __stdout
    printf4.o(i.__0vsnprintf$4) refers to printf4.o(i._printf_core) for _printf_core
    printf4.o(i.__0vsnprintf$4) refers to printf4.o(i._snputc) for _snputc
    printf4.o(i.__0vsprintf$4) refers to printf4.o(i._printf_core) for _printf_core
    printf4.o(i.__0vsprintf$4) refers to printf4.o(i._sputc) for _sputc
    printf4.o(i._printf_core) refers to uldiv.o(.text) for __aeabi_uldivmod
    printf5.o(i.__0fprintf$5) refers to printf5.o(i._printf_core) for _printf_core
    printf5.o(i.__0fprintf$5) refers to fputc.o(i.fputc) for fputc
    printf5.o(i.__0printf$5) refers to printf5.o(i._printf_core) for _printf_core
    printf5.o(i.__0printf$5) refers to fputc.o(i.fputc) for fputc
    printf5.o(i.__0printf$5) refers to stdout.o(.data) for __stdout
    printf5.o(i.__0snprintf$5) refers to printf5.o(i._printf_core) for _printf_core
    printf5.o(i.__0snprintf$5) refers to printf5.o(i._snputc) for _snputc
    printf5.o(i.__0sprintf$5) refers to printf5.o(i._printf_core) for _printf_core
    printf5.o(i.__0sprintf$5) refers to printf5.o(i._sputc) for _sputc
    printf5.o(i.__0vfprintf$5) refers to printf5.o(i._printf_core) for _printf_core
    printf5.o(i.__0vfprintf$5) refers to fputc.o(i.fputc) for fputc
    printf5.o(i.__0vprintf$5) refers to printf5.o(i._printf_core) for _printf_core
    printf5.o(i.__0vprintf$5) refers to fputc.o(i.fputc) for fputc
    printf5.o(i.__0vprintf$5) refers to stdout.o(.data) for __stdout
    printf5.o(i.__0vsnprintf$5) refers to printf5.o(i._printf_core) for _printf_core
    printf5.o(i.__0vsnprintf$5) refers to printf5.o(i._snputc) for _snputc
    printf5.o(i.__0vsprintf$5) refers to printf5.o(i._printf_core) for _printf_core
    printf5.o(i.__0vsprintf$5) refers to printf5.o(i._sputc) for _sputc
    printf5.o(i._printf_core) refers to uldiv.o(.text) for __aeabi_uldivmod
    printf6.o(i.__0fprintf$6) refers to printf6.o(i._printf_core) for _printf_core
    printf6.o(i.__0fprintf$6) refers to fputc.o(i.fputc) for fputc
    printf6.o(i.__0printf$6) refers to printf6.o(i._printf_core) for _printf_core
    printf6.o(i.__0printf$6) refers to fputc.o(i.fputc) for fputc
    printf6.o(i.__0printf$6) refers to stdout.o(.data) for __stdout
    printf6.o(i.__0snprintf$6) refers to printf6.o(i._printf_core) for _printf_core
    printf6.o(i.__0snprintf$6) refers to printf6.o(i._snputc) for _snputc
    printf6.o(i.__0sprintf$6) refers to printf6.o(i._printf_core) for _printf_core
    printf6.o(i.__0sprintf$6) refers to printf6.o(i._sputc) for _sputc
    printf6.o(i.__0vfprintf$6) refers to printf6.o(i._printf_core) for _printf_core
    printf6.o(i.__0vfprintf$6) refers to fputc.o(i.fputc) for fputc
    printf6.o(i.__0vprintf$6) refers to printf6.o(i._printf_core) for _printf_core
    printf6.o(i.__0vprintf$6) refers to fputc.o(i.fputc) for fputc
    printf6.o(i.__0vprintf$6) refers to stdout.o(.data) for __stdout
    printf6.o(i.__0vsnprintf$6) refers to printf6.o(i._printf_core) for _printf_core
    printf6.o(i.__0vsnprintf$6) refers to printf6.o(i._snputc) for _snputc
    printf6.o(i.__0vsprintf$6) refers to printf6.o(i._printf_core) for _printf_core
    printf6.o(i.__0vsprintf$6) refers to printf6.o(i._sputc) for _sputc
    printf6.o(i._printf_core) refers to printf6.o(i._printf_pre_padding) for _printf_pre_padding
    printf6.o(i._printf_core) refers to uidiv.o(.text) for __aeabi_uidivmod
    printf6.o(i._printf_core) refers to printf6.o(i._printf_post_padding) for _printf_post_padding
    printf7.o(i.__0fprintf$7) refers to printf7.o(i._printf_core) for _printf_core
    printf7.o(i.__0fprintf$7) refers to fputc.o(i.fputc) for fputc
    printf7.o(i.__0printf$7) refers to printf7.o(i._printf_core) for _printf_core
    printf7.o(i.__0printf$7) refers to fputc.o(i.fputc) for fputc
    printf7.o(i.__0printf$7) refers to stdout.o(.data) for __stdout
    printf7.o(i.__0snprintf$7) refers to printf7.o(i._printf_core) for _printf_core
    printf7.o(i.__0snprintf$7) refers to printf7.o(i._snputc) for _snputc
    printf7.o(i.__0sprintf$7) refers to printf7.o(i._printf_core) for _printf_core
    printf7.o(i.__0sprintf$7) refers to printf7.o(i._sputc) for _sputc
    printf7.o(i.__0vfprintf$7) refers to printf7.o(i._printf_core) for _printf_core
    printf7.o(i.__0vfprintf$7) refers to fputc.o(i.fputc) for fputc
    printf7.o(i.__0vprintf$7) refers to printf7.o(i._printf_core) for _printf_core
    printf7.o(i.__0vprintf$7) refers to fputc.o(i.fputc) for fputc
    printf7.o(i.__0vprintf$7) refers to stdout.o(.data) for __stdout
    printf7.o(i.__0vsnprintf$7) refers to printf7.o(i._printf_core) for _printf_core
    printf7.o(i.__0vsnprintf$7) refers to printf7.o(i._snputc) for _snputc
    printf7.o(i.__0vsprintf$7) refers to printf7.o(i._printf_core) for _printf_core
    printf7.o(i.__0vsprintf$7) refers to printf7.o(i._sputc) for _sputc
    printf7.o(i._printf_core) refers to printf7.o(i._printf_pre_padding) for _printf_pre_padding
    printf7.o(i._printf_core) refers to uldiv.o(.text) for __aeabi_uldivmod
    printf7.o(i._printf_core) refers to printf7.o(i._printf_post_padding) for _printf_post_padding
    printf8.o(i.__0fprintf$8) refers to printf8.o(i._printf_core) for _printf_core
    printf8.o(i.__0fprintf$8) refers to fputc.o(i.fputc) for fputc
    printf8.o(i.__0printf$8) refers to printf8.o(i._printf_core) for _printf_core
    printf8.o(i.__0printf$8) refers to fputc.o(i.fputc) for fputc
    printf8.o(i.__0printf$8) refers to stdout.o(.data) for __stdout
    printf8.o(i.__0snprintf$8) refers to printf8.o(i._printf_core) for _printf_core
    printf8.o(i.__0snprintf$8) refers to printf8.o(i._snputc) for _snputc
    printf8.o(i.__0sprintf$8) refers to printf8.o(i._printf_core) for _printf_core
    printf8.o(i.__0sprintf$8) refers to printf8.o(i._sputc) for _sputc
    printf8.o(i.__0vfprintf$8) refers to printf8.o(i._printf_core) for _printf_core
    printf8.o(i.__0vfprintf$8) refers to fputc.o(i.fputc) for fputc
    printf8.o(i.__0vprintf$8) refers to printf8.o(i._printf_core) for _printf_core
    printf8.o(i.__0vprintf$8) refers to fputc.o(i.fputc) for fputc
    printf8.o(i.__0vprintf$8) refers to stdout.o(.data) for __stdout
    printf8.o(i.__0vsnprintf$8) refers to printf8.o(i._printf_core) for _printf_core
    printf8.o(i.__0vsnprintf$8) refers to printf8.o(i._snputc) for _snputc
    printf8.o(i.__0vsprintf$8) refers to printf8.o(i._printf_core) for _printf_core
    printf8.o(i.__0vsprintf$8) refers to printf8.o(i._sputc) for _sputc
    printf8.o(i._printf_core) refers to printf8.o(i._printf_pre_padding) for _printf_pre_padding
    printf8.o(i._printf_core) refers to uldiv.o(.text) for __aeabi_uldivmod
    printf8.o(i._printf_core) refers to printf8.o(i._printf_post_padding) for _printf_post_padding
    printfa.o(i.__0fprintf) refers (Special) to iusefp.o(.text) for __I$use$fp
    printfa.o(i.__0fprintf) refers to printfa.o(i._printf_core) for _printf_core
    printfa.o(i.__0fprintf) refers to fputc.o(i.fputc) for fputc
    printfa.o(i.__0printf) refers (Special) to iusefp.o(.text) for __I$use$fp
    printfa.o(i.__0printf) refers to printfa.o(i._printf_core) for _printf_core
    printfa.o(i.__0printf) refers to fputc.o(i.fputc) for fputc
    printfa.o(i.__0printf) refers to stdout.o(.data) for __stdout
    printfa.o(i.__0snprintf) refers (Special) to iusefp.o(.text) for __I$use$fp
    printfa.o(i.__0snprintf) refers to printfa.o(i._printf_core) for _printf_core
    printfa.o(i.__0snprintf) refers to printfa.o(i._snputc) for _snputc
    printfa.o(i.__0sprintf) refers (Special) to iusefp.o(.text) for __I$use$fp
    printfa.o(i.__0sprintf) refers to printfa.o(i._printf_core) for _printf_core
    printfa.o(i.__0sprintf) refers to printfa.o(i._sputc) for _sputc
    printfa.o(i.__0vfprintf) refers (Special) to iusefp.o(.text) for __I$use$fp
    printfa.o(i.__0vfprintf) refers to printfa.o(i._printf_core) for _printf_core
    printfa.o(i.__0vfprintf) refers to fputc.o(i.fputc) for fputc
    printfa.o(i.__0vprintf) refers (Special) to iusefp.o(.text) for __I$use$fp
    printfa.o(i.__0vprintf) refers to printfa.o(i._printf_core) for _printf_core
    printfa.o(i.__0vprintf) refers to fputc.o(i.fputc) for fputc
    printfa.o(i.__0vprintf) refers to stdout.o(.data) for __stdout
    printfa.o(i.__0vsnprintf) refers (Special) to iusefp.o(.text) for __I$use$fp
    printfa.o(i.__0vsnprintf) refers to printfa.o(i._printf_core) for _printf_core
    printfa.o(i.__0vsnprintf) refers to printfa.o(i._snputc) for _snputc
    printfa.o(i.__0vsprintf) refers (Special) to iusefp.o(.text) for __I$use$fp
    printfa.o(i.__0vsprintf) refers to printfa.o(i._printf_core) for _printf_core
    printfa.o(i.__0vsprintf) refers to printfa.o(i._sputc) for _sputc
    printfa.o(i._fp_digits) refers (Special) to iusefp.o(.text) for __I$use$fp
    printfa.o(i._fp_digits) refers to dmul.o(.text) for __aeabi_dmul
    printfa.o(i._fp_digits) refers to ddiv.o(.text) for __aeabi_ddiv
    printfa.o(i._fp_digits) refers to cdrcmple.o(.text) for __aeabi_cdrcmple
    printfa.o(i._fp_digits) refers to dadd.o(.text) for __aeabi_dadd
    printfa.o(i._fp_digits) refers to dfixul.o(.text) for __aeabi_d2ulz
    printfa.o(i._fp_digits) refers to uldiv.o(.text) for __aeabi_uldivmod
    printfa.o(i._printf_core) refers (Special) to iusefp.o(.text) for __I$use$fp
    printfa.o(i._printf_core) refers to printfa.o(i._printf_pre_padding) for _printf_pre_padding
    printfa.o(i._printf_core) refers to uldiv.o(.text) for __aeabi_uldivmod
    printfa.o(i._printf_core) refers to printfa.o(i._printf_post_padding) for _printf_post_padding
    printfa.o(i._printf_core) refers to printfa.o(i._fp_digits) for _fp_digits
    printfa.o(i._printf_core) refers to uidiv.o(.text) for __aeabi_uidivmod
    printfa.o(i._printf_post_padding) refers (Special) to iusefp.o(.text) for __I$use$fp
    printfa.o(i._printf_pre_padding) refers (Special) to iusefp.o(.text) for __I$use$fp
    printfa.o(i._snputc) refers (Special) to iusefp.o(.text) for __I$use$fp
    printfa.o(i._sputc) refers (Special) to iusefp.o(.text) for __I$use$fp
    dadd.o(.text) refers (Special) to iusefp.o(.text) for __I$use$fp
    dadd.o(.text) refers to llshl.o(.text) for __aeabi_llsl
    dadd.o(.text) refers to llsshr.o(.text) for __aeabi_lasr
    dadd.o(.text) refers to depilogue.o(.text) for _double_epilogue
    dmul.o(.text) refers (Special) to iusefp.o(.text) for __I$use$fp
    dmul.o(.text) refers to depilogue.o(.text) for _double_epilogue
    ddiv.o(.text) refers (Special) to iusefp.o(.text) for __I$use$fp
    ddiv.o(.text) refers to depilogue.o(.text) for _double_round
    dflti.o(.text) refers (Special) to iusefp.o(.text) for __I$use$fp
    dflti.o(.text) refers to depilogue.o(.text) for _double_epilogue
    dfltui.o(.text) refers (Special) to iusefp.o(.text) for __I$use$fp
    dfltui.o(.text) refers to depilogue.o(.text) for _double_epilogue
    dfixi.o(.text) refers (Special) to iusefp.o(.text) for __I$use$fp
    dfixi.o(.text) refers to llushr.o(.text) for __aeabi_llsr
    f2d.o(.text) refers (Special) to iusefp.o(.text) for __I$use$fp
    d2f.o(.text) refers (Special) to iusefp.o(.text) for __I$use$fp
    d2f.o(.text) refers to fepilogue.o(.text) for _float_round
    entry2.o(.ARM.Collect$$$$00000001) refers to entry2.o(.ARM.Collect$$$$00002712) for __lit__00000000
    entry2.o(.ARM.Collect$$$$00002712) refers to startup_stm32f302xc.o(STACK) for __initial_sp
    entry2.o(__vectab_stack_and_reset_area) refers to startup_stm32f302xc.o(STACK) for __initial_sp
    entry2.o(__vectab_stack_and_reset_area) refers to entry.o(.ARM.Collect$$$$00000000) for __main
    entry5.o(.ARM.Collect$$$$00000004) refers to init.o(.text) for __scatterload
    entry9a.o(.ARM.Collect$$$$0000000B) refers to main.o(i.main) for main
    entry9b.o(.ARM.Collect$$$$0000000C) refers to main.o(i.main) for main
    fputc.o(i.fputc) refers (Special) to iusesemip.o(.text) for __I$use$semihosting$fputc
    fputc.o(i.fputc) refers (Special) to semi.o(.text) for __semihosting_library_function
    uldiv.o(.text) refers to llushr.o(.text) for __aeabi_llsr
    uldiv.o(.text) refers to llshl.o(.text) for __aeabi_llsl
    errno.o(i.__aeabi_errno_addr) refers to errno.o(.data) for .data
    errno.o(i.__read_errno) refers to errno.o(.data) for .data
    errno.o(i.__set_errno) refers to errno.o(.data) for .data
    depilogue.o(.text) refers to llshl.o(.text) for __aeabi_llsl
    depilogue.o(.text) refers to llushr.o(.text) for __aeabi_llsr
    dsqrt.o(.text) refers to llushr.o(.text) for __aeabi_llsr
    dsqrt.o(.text) refers to depilogue.o(.text) for _double_round
    dfixul.o(.text) refers to llushr.o(.text) for __aeabi_llsr
    dfixul.o(.text) refers to llshl.o(.text) for __aeabi_llsl
    init.o(.text) refers to entry5.o(.ARM.Collect$$$$00000004) for __main_after_scatterload


==============================================================================

Removing Unused input sections from the image.

    Removing startup_stm32f302xc.o(HEAP), (512 bytes).
    Removing main.o(.rev16_text), (4 bytes).
    Removing main.o(.revsh_text), (4 bytes).
    Removing main.o(.rrx_text), (6 bytes).
    Removing main.o(i.M26_PowerDown), (48 bytes).
    Removing main.o(i.m26_send_cmd), (96 bytes).
    Removing main.o(.bss), (32 bytes).
    Removing main.o(.bss), (24 bytes).
    Removing main.o(.data), (4 bytes).
    Removing stm32f3xx_it.o(.rev16_text), (4 bytes).
    Removing stm32f3xx_it.o(.revsh_text), (4 bytes).
    Removing stm32f3xx_it.o(.rrx_text), (6 bytes).
    Removing stm32f3xx_hal_msp.o(.rev16_text), (4 bytes).
    Removing stm32f3xx_hal_msp.o(.revsh_text), (4 bytes).
    Removing stm32f3xx_hal_msp.o(.rrx_text), (6 bytes).
    Removing stm32f3xx_hal_msp.o(i.HAL_ADC_MspDeInit), (56 bytes).
    Removing stm32f3xx_hal_msp.o(i.HAL_UART_MspDeInit), (68 bytes).
    Removing system_config.o(.rev16_text), (4 bytes).
    Removing system_config.o(.revsh_text), (4 bytes).
    Removing system_config.o(.rrx_text), (6 bytes).
    Removing system_config.o(i.Restory_Watch), (40 bytes).
    Removing system_config.o(i.Switch_Ploy), (2 bytes).
    Removing system_config.o(i.System_FileRead), (40 bytes).
    Removing system_config.o(i.System_FileSave), (68 bytes).
    Removing system_config.o(i.System_Loop), (20 bytes).
    Removing system_config.o(i.System_SaveDb), (20 bytes).
    Removing system_config.o(.data), (1 bytes).
    Removing tem_adc.o(.rev16_text), (4 bytes).
    Removing tem_adc.o(.revsh_text), (4 bytes).
    Removing tem_adc.o(.rrx_text), (6 bytes).
    Removing tem_adc.o(i.Leak_Gettemplate), (132 bytes).
    Removing tem_adc.o(i.Template_Smooth), (20 bytes).
    Removing tem_adc.o(.bss), (20 bytes).
    Removing tem_adc.o(.bss), (800 bytes).
    Removing rn8302b.o(.rev16_text), (4 bytes).
    Removing rn8302b.o(.revsh_text), (4 bytes).
    Removing rn8302b.o(.rrx_text), (6 bytes).
    Removing rn8302b.o(i.BufToU32), (12 bytes).
    Removing rn8302b.o(i.RN8302B_Inout), (2 bytes).
    Removing rn8302b.o(i.RN8302_CalibratePx_PHSL), (300 bytes).
    Removing rn8302b.o(i.RN_ReadDeviceID), (2 bytes).
    Removing rn8302b.o(i.TestDevice), (16 bytes).
    Removing rn8302b.o(i.fnDFConver_Bcd16To16), (42 bytes).
    Removing rn8302b.o(i.fnDFConver_Bcd32To32), (44 bytes).
    Removing rn8302b.o(i.fnDFConver_Hex32ToDF09), (84 bytes).
    Removing rn8302b.o(i.fnDl645Energy_Exec), (384 bytes).
    Removing rn8302b.o(i.fnDl645Front_Exec), (956 bytes).
    Removing rn8302b.o(i.fnHexToBcd_u16), (76 bytes).
    Removing rn8302b.o(i.fnHexToBcd_u32), (164 bytes).
    Removing rn8302b.o(i.fnStamp_Through), (28 bytes).
    Removing rn8302b.o(.data), (4 bytes).
    Removing rn8302b.o(.data), (4 bytes).
    Removing rn8302b.o(.data), (4 bytes).
    Removing rn8302b.o(.data), (4 bytes).
    Removing rn8302b.o(.data), (8 bytes).
    Removing rn8302b.o(.data), (5 bytes).
    Removing lct_rt623832.o(i.assign_value_address), (64 bytes).
    Removing lct_rt623832.o(i.display_ram_byte), (40 bytes).
    Removing lct_rt623832.o(i.get_lcd_ram_byte), (12 bytes).
    Removing lct_rt623832.o(i.is_lcd_fast_mode), (16 bytes).
    Removing lct_rt623832.o(i.is_skip_enable), (20 bytes).
    Removing lct_rt623832.o(i.rt623832_init), (56 bytes).
    Removing lct_rt623832.o(i.set_index_of_screen_node), (20 bytes).
    Removing lct_rt623832.o(i.set_lcd_show_mode), (12 bytes).
    Removing lct_rt623832.o(i.show_AudoMode), (28 bytes).
    Removing lct_rt623832.o(i.show_alarms), (296 bytes).
    Removing lct_rt623832.o(i.show_letter_a), (40 bytes).
    Removing lct_rt623832.o(i.show_letter_abc), (40 bytes).
    Removing lct_rt623832.o(i.show_letter_acb), (40 bytes).
    Removing lct_rt623832.o(i.show_letter_addr), (40 bytes).
    Removing lct_rt623832.o(i.show_letter_b), (40 bytes).
    Removing lct_rt623832.o(i.show_letter_c), (40 bytes).
    Removing lct_rt623832.o(i.show_letter_in_line1), (308 bytes).
    Removing lct_rt623832.o(i.show_letter_in_line2), (624 bytes).
    Removing lct_rt623832.o(i.show_letter_v), (40 bytes).
    Removing lct_rt623832.o(i.show_logo), (40 bytes).
    Removing lct_rt623832.o(i.show_number_in_line1), (148 bytes).
    Removing lct_rt623832.o(i.show_number_in_line2), (208 bytes).
    Removing lct_rt623832.o(i.show_units), (88 bytes).
    Removing lct_rt623832.o(i.switch_node_index), (2 bytes).
    Removing lct_rt623832.o(.bss), (32 bytes).
    Removing lcd_rt625181.o(.rev16_text), (4 bytes).
    Removing lcd_rt625181.o(.revsh_text), (4 bytes).
    Removing lcd_rt625181.o(.rrx_text), (6 bytes).
    Removing lcd_rt625181.o(i.Disp_Parame), (12 bytes).
    Removing lcd_rt625181.o(i.Disp_Temper_Unit), (388 bytes).
    Removing lcd_rt625181.o(i.Disp_Unit), (44 bytes).
    Removing lcd_rt625181.o(i.changeChannels), (2 bytes).
    Removing lcd_rt625181.o(i.dispDot), (2 bytes).
    Removing lcd_rt625181.o(i.dispPower), (248 bytes).
    Removing lcd_rt625181.o(i.disp_MinorStatus), (24 bytes).
    Removing lcd_rt625181.o(i.disp_Power2), (44 bytes).
    Removing lcd_rt625181.o(.constdata), (10 bytes).
    Removing lcd_rt625181.o(.constdata), (10 bytes).
    Removing lcd_rt625181.o(.data), (1 bytes).
    Removing lcd_rt625181.o(.data), (4 bytes).
    Removing lcd_rt625181.o(.data), (4 bytes).
    Removing ht1622x.o(.rev16_text), (4 bytes).
    Removing ht1622x.o(.revsh_text), (4 bytes).
    Removing ht1622x.o(.rrx_text), (6 bytes).
    Removing ht1622x.o(i.ht1622XX_send_1high), (54 bytes).
    Removing ht1622x.o(i.ht1622_data_in), (76 bytes).
    Removing ht1622x.o(i.ht1622x_buzz), (26 bytes).
    Removing stm32f3xx_hal_adc.o(.rev16_text), (4 bytes).
    Removing stm32f3xx_hal_adc.o(.revsh_text), (4 bytes).
    Removing stm32f3xx_hal_adc.o(.rrx_text), (6 bytes).
    Removing stm32f3xx_hal_adc.o(i.HAL_ADC_AnalogWDGConfig), (4 bytes).
    Removing stm32f3xx_hal_adc.o(i.HAL_ADC_ConfigChannel), (4 bytes).
    Removing stm32f3xx_hal_adc.o(i.HAL_ADC_DeInit), (4 bytes).
    Removing stm32f3xx_hal_adc.o(i.HAL_ADC_GetError), (4 bytes).
    Removing stm32f3xx_hal_adc.o(i.HAL_ADC_GetState), (4 bytes).
    Removing stm32f3xx_hal_adc.o(i.HAL_ADC_GetValue), (6 bytes).
    Removing stm32f3xx_hal_adc.o(i.HAL_ADC_IRQHandler), (2 bytes).
    Removing stm32f3xx_hal_adc.o(i.HAL_ADC_Init), (4 bytes).
    Removing stm32f3xx_hal_adc.o(i.HAL_ADC_MspDeInit), (2 bytes).
    Removing stm32f3xx_hal_adc.o(i.HAL_ADC_MspInit), (2 bytes).
    Removing stm32f3xx_hal_adc.o(i.HAL_ADC_PollForConversion), (4 bytes).
    Removing stm32f3xx_hal_adc.o(i.HAL_ADC_PollForEvent), (4 bytes).
    Removing stm32f3xx_hal_adc.o(i.HAL_ADC_Start), (4 bytes).
    Removing stm32f3xx_hal_adc.o(i.HAL_ADC_Start_DMA), (4 bytes).
    Removing stm32f3xx_hal_adc.o(i.HAL_ADC_Start_IT), (4 bytes).
    Removing stm32f3xx_hal_adc.o(i.HAL_ADC_Stop), (4 bytes).
    Removing stm32f3xx_hal_adc.o(i.HAL_ADC_Stop_DMA), (4 bytes).
    Removing stm32f3xx_hal_adc.o(i.HAL_ADC_Stop_IT), (4 bytes).
    Removing stm32f3xx_hal_adc_ex.o(.rev16_text), (4 bytes).
    Removing stm32f3xx_hal_adc_ex.o(.revsh_text), (4 bytes).
    Removing stm32f3xx_hal_adc_ex.o(.rrx_text), (6 bytes).
    Removing stm32f3xx_hal_adc_ex.o(i.ADC_ConversionStop), (184 bytes).
    Removing stm32f3xx_hal_adc_ex.o(i.HAL_ADCEx_Calibration_GetValue), (20 bytes).
    Removing stm32f3xx_hal_adc_ex.o(i.HAL_ADCEx_Calibration_SetValue), (102 bytes).
    Removing stm32f3xx_hal_adc_ex.o(i.HAL_ADCEx_InjectedConfigChannel), (1008 bytes).
    Removing stm32f3xx_hal_adc_ex.o(i.HAL_ADCEx_InjectedGetValue), (38 bytes).
    Removing stm32f3xx_hal_adc_ex.o(i.HAL_ADCEx_InjectedPollForConversion), (164 bytes).
    Removing stm32f3xx_hal_adc_ex.o(i.HAL_ADCEx_InjectedStart), (166 bytes).
    Removing stm32f3xx_hal_adc_ex.o(i.HAL_ADCEx_InjectedStart_IT), (214 bytes).
    Removing stm32f3xx_hal_adc_ex.o(i.HAL_ADCEx_InjectedStop), (104 bytes).
    Removing stm32f3xx_hal_adc_ex.o(i.HAL_ADCEx_InjectedStop_IT), (114 bytes).
    Removing stm32f3xx_hal_adc_ex.o(i.HAL_ADCEx_MultiModeGetValue), (12 bytes).
    Removing stm32f3xx_hal_adc_ex.o(i.HAL_ADCEx_MultiModeStart_DMA), (232 bytes).
    Removing stm32f3xx_hal_adc_ex.o(i.HAL_ADCEx_MultiModeStop_DMA), (212 bytes).
    Removing stm32f3xx_hal_adc_ex.o(i.HAL_ADCEx_RegularMultiModeStop_DMA), (228 bytes).
    Removing stm32f3xx_hal_adc_ex.o(i.HAL_ADCEx_RegularStop), (82 bytes).
    Removing stm32f3xx_hal_adc_ex.o(i.HAL_ADCEx_RegularStop_DMA), (132 bytes).
    Removing stm32f3xx_hal_adc_ex.o(i.HAL_ADCEx_RegularStop_IT), (90 bytes).
    Removing stm32f3xx_hal_adc_ex.o(i.HAL_ADC_AnalogWDGConfig), (360 bytes).
    Removing stm32f3xx_hal_adc_ex.o(i.HAL_ADC_DeInit), (400 bytes).
    Removing stm32f3xx_hal_adc_ex.o(i.HAL_ADC_GetValue), (6 bytes).
    Removing stm32f3xx_hal_adc_ex.o(i.HAL_ADC_PollForConversion), (224 bytes).
    Removing stm32f3xx_hal_adc_ex.o(i.HAL_ADC_PollForEvent), (170 bytes).
    Removing stm32f3xx_hal_adc_ex.o(i.HAL_ADC_Start), (208 bytes).
    Removing stm32f3xx_hal_adc_ex.o(i.HAL_ADC_Start_IT), (256 bytes).
    Removing stm32f3xx_hal_adc_ex.o(i.HAL_ADC_Stop), (62 bytes).
    Removing stm32f3xx_hal_adc_ex.o(i.HAL_ADC_Stop_DMA), (116 bytes).
    Removing stm32f3xx_hal_adc_ex.o(i.HAL_ADC_Stop_IT), (72 bytes).
    Removing stm32f3xx_hal_tim.o(.rev16_text), (4 bytes).
    Removing stm32f3xx_hal_tim.o(.revsh_text), (4 bytes).
    Removing stm32f3xx_hal_tim.o(.rrx_text), (6 bytes).
    Removing stm32f3xx_hal_tim.o(i.HAL_TIM_Base_DeInit), (56 bytes).
    Removing stm32f3xx_hal_tim.o(i.HAL_TIM_Base_GetState), (6 bytes).
    Removing stm32f3xx_hal_tim.o(i.HAL_TIM_Base_MspDeInit), (2 bytes).
    Removing stm32f3xx_hal_tim.o(i.HAL_TIM_Base_MspInit), (2 bytes).
    Removing stm32f3xx_hal_tim.o(i.HAL_TIM_Base_Start), (26 bytes).
    Removing stm32f3xx_hal_tim.o(i.HAL_TIM_Base_Start_DMA), (92 bytes).
    Removing stm32f3xx_hal_tim.o(i.HAL_TIM_Base_Stop), (44 bytes).
    Removing stm32f3xx_hal_tim.o(i.HAL_TIM_Base_Stop_DMA), (48 bytes).
    Removing stm32f3xx_hal_tim.o(i.HAL_TIM_ConfigOCrefClear), (170 bytes).
    Removing stm32f3xx_hal_tim.o(i.HAL_TIM_ConfigTI1Input), (16 bytes).
    Removing stm32f3xx_hal_tim.o(i.HAL_TIM_DMABurst_MultiReadStart), (256 bytes).
    Removing stm32f3xx_hal_tim.o(i.HAL_TIM_DMABurst_MultiWriteStart), (256 bytes).
    Removing stm32f3xx_hal_tim.o(i.HAL_TIM_DMABurst_ReadStart), (18 bytes).
    Removing stm32f3xx_hal_tim.o(i.HAL_TIM_DMABurst_ReadStop), (96 bytes).
    Removing stm32f3xx_hal_tim.o(i.HAL_TIM_DMABurst_WriteStart), (18 bytes).
    Removing stm32f3xx_hal_tim.o(i.HAL_TIM_DMABurst_WriteStop), (96 bytes).
    Removing stm32f3xx_hal_tim.o(i.HAL_TIM_Encoder_DeInit), (56 bytes).
    Removing stm32f3xx_hal_tim.o(i.HAL_TIM_Encoder_GetState), (6 bytes).
    Removing stm32f3xx_hal_tim.o(i.HAL_TIM_Encoder_Init), (156 bytes).
    Removing stm32f3xx_hal_tim.o(i.HAL_TIM_Encoder_MspDeInit), (2 bytes).
    Removing stm32f3xx_hal_tim.o(i.HAL_TIM_Encoder_MspInit), (2 bytes).
    Removing stm32f3xx_hal_tim.o(i.HAL_TIM_Encoder_Start), (50 bytes).
    Removing stm32f3xx_hal_tim.o(i.HAL_TIM_Encoder_Start_DMA), (272 bytes).
    Removing stm32f3xx_hal_tim.o(i.HAL_TIM_Encoder_Start_IT), (92 bytes).
    Removing stm32f3xx_hal_tim.o(i.HAL_TIM_Encoder_Stop), (68 bytes).
    Removing stm32f3xx_hal_tim.o(i.HAL_TIM_Encoder_Stop_DMA), (116 bytes).
    Removing stm32f3xx_hal_tim.o(i.HAL_TIM_Encoder_Stop_IT), (116 bytes).
    Removing stm32f3xx_hal_tim.o(i.HAL_TIM_ErrorCallback), (2 bytes).
    Removing stm32f3xx_hal_tim.o(i.HAL_TIM_GenerateEvent), (38 bytes).
    Removing stm32f3xx_hal_tim.o(i.HAL_TIM_IC_ConfigChannel), (284 bytes).
    Removing stm32f3xx_hal_tim.o(i.HAL_TIM_IC_DeInit), (56 bytes).
    Removing stm32f3xx_hal_tim.o(i.HAL_TIM_IC_GetState), (6 bytes).
    Removing stm32f3xx_hal_tim.o(i.HAL_TIM_IC_Init), (54 bytes).
    Removing stm32f3xx_hal_tim.o(i.HAL_TIM_IC_MspDeInit), (2 bytes).
    Removing stm32f3xx_hal_tim.o(i.HAL_TIM_IC_MspInit), (2 bytes).
    Removing stm32f3xx_hal_tim.o(i.HAL_TIM_IC_Start), (26 bytes).
    Removing stm32f3xx_hal_tim.o(i.HAL_TIM_IC_Start_DMA), (200 bytes).
    Removing stm32f3xx_hal_tim.o(i.HAL_TIM_IC_Start_IT), (76 bytes).
    Removing stm32f3xx_hal_tim.o(i.HAL_TIM_IC_Stop), (44 bytes).
    Removing stm32f3xx_hal_tim.o(i.HAL_TIM_IC_Stop_DMA), (100 bytes).
    Removing stm32f3xx_hal_tim.o(i.HAL_TIM_IC_Stop_IT), (94 bytes).
    Removing stm32f3xx_hal_tim.o(i.HAL_TIM_OC_ConfigChannel), (86 bytes).
    Removing stm32f3xx_hal_tim.o(i.HAL_TIM_OC_DeInit), (56 bytes).
    Removing stm32f3xx_hal_tim.o(i.HAL_TIM_OC_GetState), (6 bytes).
    Removing stm32f3xx_hal_tim.o(i.HAL_TIM_OC_Init), (54 bytes).
    Removing stm32f3xx_hal_tim.o(i.HAL_TIM_OC_MspDeInit), (2 bytes).
    Removing stm32f3xx_hal_tim.o(i.HAL_TIM_OC_MspInit), (2 bytes).
    Removing stm32f3xx_hal_tim.o(i.HAL_TIM_OC_Start), (76 bytes).
    Removing stm32f3xx_hal_tim.o(i.HAL_TIM_OC_Start_DMA), (260 bytes).
    Removing stm32f3xx_hal_tim.o(i.HAL_TIM_OC_Start_IT), (128 bytes).
    Removing stm32f3xx_hal_tim.o(i.HAL_TIM_OC_Stop), (108 bytes).
    Removing stm32f3xx_hal_tim.o(i.HAL_TIM_OC_Stop_DMA), (164 bytes).
    Removing stm32f3xx_hal_tim.o(i.HAL_TIM_OC_Stop_IT), (156 bytes).
    Removing stm32f3xx_hal_tim.o(i.HAL_TIM_OnePulse_ConfigChannel), (224 bytes).
    Removing stm32f3xx_hal_tim.o(i.HAL_TIM_OnePulse_DeInit), (56 bytes).
    Removing stm32f3xx_hal_tim.o(i.HAL_TIM_OnePulse_GetState), (6 bytes).
    Removing stm32f3xx_hal_tim.o(i.HAL_TIM_OnePulse_Init), (74 bytes).
    Removing stm32f3xx_hal_tim.o(i.HAL_TIM_OnePulse_MspDeInit), (2 bytes).
    Removing stm32f3xx_hal_tim.o(i.HAL_TIM_OnePulse_MspInit), (2 bytes).
    Removing stm32f3xx_hal_tim.o(i.HAL_TIM_OnePulse_Start), (80 bytes).
    Removing stm32f3xx_hal_tim.o(i.HAL_TIM_OnePulse_Start_IT), (100 bytes).
    Removing stm32f3xx_hal_tim.o(i.HAL_TIM_OnePulse_Stop), (120 bytes).
    Removing stm32f3xx_hal_tim.o(i.HAL_TIM_OnePulse_Stop_IT), (140 bytes).
    Removing stm32f3xx_hal_tim.o(i.HAL_TIM_PWM_ConfigChannel), (208 bytes).
    Removing stm32f3xx_hal_tim.o(i.HAL_TIM_PWM_DeInit), (56 bytes).
    Removing stm32f3xx_hal_tim.o(i.HAL_TIM_PWM_GetState), (6 bytes).
    Removing stm32f3xx_hal_tim.o(i.HAL_TIM_PWM_Init), (54 bytes).
    Removing stm32f3xx_hal_tim.o(i.HAL_TIM_PWM_MspDeInit), (2 bytes).
    Removing stm32f3xx_hal_tim.o(i.HAL_TIM_PWM_MspInit), (2 bytes).
    Removing stm32f3xx_hal_tim.o(i.HAL_TIM_PWM_Start), (76 bytes).
    Removing stm32f3xx_hal_tim.o(i.HAL_TIM_PWM_Start_DMA), (260 bytes).
    Removing stm32f3xx_hal_tim.o(i.HAL_TIM_PWM_Start_IT), (128 bytes).
    Removing stm32f3xx_hal_tim.o(i.HAL_TIM_PWM_Stop), (112 bytes).
    Removing stm32f3xx_hal_tim.o(i.HAL_TIM_PWM_Stop_DMA), (164 bytes).
    Removing stm32f3xx_hal_tim.o(i.HAL_TIM_PWM_Stop_IT), (156 bytes).
    Removing stm32f3xx_hal_tim.o(i.HAL_TIM_PeriodElapsedCallback), (2 bytes).
    Removing stm32f3xx_hal_tim.o(i.HAL_TIM_ReadCapturedValue), (68 bytes).
    Removing stm32f3xx_hal_tim.o(i.HAL_TIM_SlaveConfigSynchronization), (66 bytes).
    Removing stm32f3xx_hal_tim.o(i.HAL_TIM_SlaveConfigSynchronization_IT), (66 bytes).
    Removing stm32f3xx_hal_tim.o(i.TIM_CCxChannelCmd), (22 bytes).
    Removing stm32f3xx_hal_tim.o(i.TIM_DMACaptureCplt), (62 bytes).
    Removing stm32f3xx_hal_tim.o(i.TIM_DMADelayPulseCplt), (62 bytes).
    Removing stm32f3xx_hal_tim.o(i.TIM_DMAError), (16 bytes).
    Removing stm32f3xx_hal_tim.o(i.TIM_DMAPeriodElapsedCplt), (16 bytes).
    Removing stm32f3xx_hal_tim.o(i.TIM_DMATriggerCplt), (16 bytes).
    Removing stm32f3xx_hal_tim.o(i.TIM_OC1_SetConfig), (136 bytes).
    Removing stm32f3xx_hal_tim.o(i.TIM_OC2_SetConfig), (128 bytes).
    Removing stm32f3xx_hal_tim.o(i.TIM_OC3_SetConfig), (128 bytes).
    Removing stm32f3xx_hal_tim.o(i.TIM_OC4_SetConfig), (108 bytes).
    Removing stm32f3xx_hal_tim.o(i.TIM_SlaveTimer_SetConfig), (128 bytes).
    Removing stm32f3xx_hal_tim.o(i.TIM_TI1_SetConfig), (100 bytes).
    Removing stm32f3xx_hal_tim.o(i.TIM_TI2_SetConfig), (54 bytes).
    Removing stm32f3xx_hal_tim_ex.o(.rev16_text), (4 bytes).
    Removing stm32f3xx_hal_tim_ex.o(.revsh_text), (4 bytes).
    Removing stm32f3xx_hal_tim_ex.o(.rrx_text), (6 bytes).
    Removing stm32f3xx_hal_tim_ex.o(i.HAL_TIMEx_ConfigBreakDeadTime), (136 bytes).
    Removing stm32f3xx_hal_tim_ex.o(i.HAL_TIMEx_ConfigCommutationEvent), (92 bytes).
    Removing stm32f3xx_hal_tim_ex.o(i.HAL_TIMEx_ConfigCommutationEvent_DMA), (124 bytes).
    Removing stm32f3xx_hal_tim_ex.o(i.HAL_TIMEx_ConfigCommutationEvent_IT), (102 bytes).
    Removing stm32f3xx_hal_tim_ex.o(i.HAL_TIMEx_GroupChannel5), (56 bytes).
    Removing stm32f3xx_hal_tim_ex.o(i.HAL_TIMEx_HallSensor_DeInit), (56 bytes).
    Removing stm32f3xx_hal_tim_ex.o(i.HAL_TIMEx_HallSensor_GetState), (6 bytes).
    Removing stm32f3xx_hal_tim_ex.o(i.HAL_TIMEx_HallSensor_Init), (192 bytes).
    Removing stm32f3xx_hal_tim_ex.o(i.HAL_TIMEx_HallSensor_MspDeInit), (2 bytes).
    Removing stm32f3xx_hal_tim_ex.o(i.HAL_TIMEx_HallSensor_MspInit), (2 bytes).
    Removing stm32f3xx_hal_tim_ex.o(i.HAL_TIMEx_HallSensor_Start), (28 bytes).
    Removing stm32f3xx_hal_tim_ex.o(i.HAL_TIMEx_HallSensor_Start_DMA), (104 bytes).
    Removing stm32f3xx_hal_tim_ex.o(i.HAL_TIMEx_HallSensor_Start_IT), (38 bytes).
    Removing stm32f3xx_hal_tim_ex.o(i.HAL_TIMEx_HallSensor_Stop), (46 bytes).
    Removing stm32f3xx_hal_tim_ex.o(i.HAL_TIMEx_HallSensor_Stop_DMA), (56 bytes).
    Removing stm32f3xx_hal_tim_ex.o(i.HAL_TIMEx_HallSensor_Stop_IT), (56 bytes).
    Removing stm32f3xx_hal_tim_ex.o(i.HAL_TIMEx_OCN_Start), (36 bytes).
    Removing stm32f3xx_hal_tim_ex.o(i.HAL_TIMEx_OCN_Start_DMA), (184 bytes).
    Removing stm32f3xx_hal_tim_ex.o(i.HAL_TIMEx_OCN_Start_IT), (84 bytes).
    Removing stm32f3xx_hal_tim_ex.o(i.HAL_TIMEx_OCN_Stop), (68 bytes).
    Removing stm32f3xx_hal_tim_ex.o(i.HAL_TIMEx_OCN_Stop_DMA), (112 bytes).
    Removing stm32f3xx_hal_tim_ex.o(i.HAL_TIMEx_OCN_Stop_IT), (122 bytes).
    Removing stm32f3xx_hal_tim_ex.o(i.HAL_TIMEx_OnePulseN_Start), (26 bytes).
    Removing stm32f3xx_hal_tim_ex.o(i.HAL_TIMEx_OnePulseN_Start_IT), (46 bytes).
    Removing stm32f3xx_hal_tim_ex.o(i.HAL_TIMEx_OnePulseN_Stop), (68 bytes).
    Removing stm32f3xx_hal_tim_ex.o(i.HAL_TIMEx_OnePulseN_Stop_IT), (88 bytes).
    Removing stm32f3xx_hal_tim_ex.o(i.HAL_TIMEx_PWMN_Start), (36 bytes).
    Removing stm32f3xx_hal_tim_ex.o(i.HAL_TIMEx_PWMN_Start_DMA), (184 bytes).
    Removing stm32f3xx_hal_tim_ex.o(i.HAL_TIMEx_PWMN_Start_IT), (84 bytes).
    Removing stm32f3xx_hal_tim_ex.o(i.HAL_TIMEx_PWMN_Stop), (68 bytes).
    Removing stm32f3xx_hal_tim_ex.o(i.HAL_TIMEx_PWMN_Stop_DMA), (112 bytes).
    Removing stm32f3xx_hal_tim_ex.o(i.HAL_TIMEx_PWMN_Stop_IT), (122 bytes).
    Removing stm32f3xx_hal_tim_ex.o(i.HAL_TIMEx_RemapConfig), (34 bytes).
    Removing stm32f3xx_hal_tim_ex.o(i.HAL_TIM_ConfigOCrefClear), (272 bytes).
    Removing stm32f3xx_hal_tim_ex.o(i.HAL_TIM_OC_ConfigChannel), (114 bytes).
    Removing stm32f3xx_hal_tim_ex.o(i.HAL_TIM_PWM_ConfigChannel), (296 bytes).
    Removing stm32f3xx_hal_tim_ex.o(i.TIMEx_DMACommutationCplt), (16 bytes).
    Removing stm32f3xx_hal_tim_ex.o(i.TIM_CCxNChannelCmd), (22 bytes).
    Removing stm32f3xx_hal_tim_ex.o(i.TIM_OC5_SetConfig), (100 bytes).
    Removing stm32f3xx_hal_tim_ex.o(i.TIM_OC6_SetConfig), (104 bytes).
    Removing stm32f3xx_hal_uart.o(.rev16_text), (4 bytes).
    Removing stm32f3xx_hal_uart.o(.revsh_text), (4 bytes).
    Removing stm32f3xx_hal_uart.o(.rrx_text), (6 bytes).
    Removing stm32f3xx_hal_uart.o(i.HAL_HalfDuplex_EnableReceiver), (58 bytes).
    Removing stm32f3xx_hal_uart.o(i.HAL_HalfDuplex_EnableTransmitter), (58 bytes).
    Removing stm32f3xx_hal_uart.o(i.HAL_HalfDuplex_Init), (116 bytes).
    Removing stm32f3xx_hal_uart.o(i.HAL_LIN_Init), (140 bytes).
    Removing stm32f3xx_hal_uart.o(i.HAL_LIN_SendBreak), (46 bytes).
    Removing stm32f3xx_hal_uart.o(i.HAL_MultiProcessor_DisableMuteMode), (44 bytes).
    Removing stm32f3xx_hal_uart.o(i.HAL_MultiProcessor_EnableMuteMode), (44 bytes).
    Removing stm32f3xx_hal_uart.o(i.HAL_MultiProcessor_EnterMuteMode), (12 bytes).
    Removing stm32f3xx_hal_uart.o(i.HAL_MultiProcessor_Init), (138 bytes).
    Removing stm32f3xx_hal_uart.o(i.HAL_UART_Abort), (112 bytes).
    Removing stm32f3xx_hal_uart.o(i.HAL_UART_AbortCpltCallback), (2 bytes).
    Removing stm32f3xx_hal_uart.o(i.HAL_UART_AbortReceive), (76 bytes).
    Removing stm32f3xx_hal_uart.o(i.HAL_UART_AbortReceiveCpltCallback), (2 bytes).
    Removing stm32f3xx_hal_uart.o(i.HAL_UART_AbortReceive_IT), (108 bytes).
    Removing stm32f3xx_hal_uart.o(i.HAL_UART_AbortTransmit), (58 bytes).
    Removing stm32f3xx_hal_uart.o(i.HAL_UART_AbortTransmitCpltCallback), (2 bytes).
    Removing stm32f3xx_hal_uart.o(i.HAL_UART_AbortTransmit_IT), (84 bytes).
    Removing stm32f3xx_hal_uart.o(i.HAL_UART_Abort_IT), (180 bytes).
    Removing stm32f3xx_hal_uart.o(i.HAL_UART_DMAPause), (98 bytes).
    Removing stm32f3xx_hal_uart.o(i.HAL_UART_DMAResume), (92 bytes).
    Removing stm32f3xx_hal_uart.o(i.HAL_UART_DeInit), (64 bytes).
    Removing stm32f3xx_hal_uart.o(i.HAL_UART_GetError), (4 bytes).
    Removing stm32f3xx_hal_uart.o(i.HAL_UART_GetState), (10 bytes).
    Removing stm32f3xx_hal_uart.o(i.HAL_UART_MspDeInit), (2 bytes).
    Removing stm32f3xx_hal_uart.o(i.HAL_UART_MspInit), (2 bytes).
    Removing stm32f3xx_hal_uart.o(i.HAL_UART_Receive), (212 bytes).
    Removing stm32f3xx_hal_uart.o(i.HAL_UART_Receive_IT), (122 bytes).
    Removing stm32f3xx_hal_uart.o(i.HAL_UART_RxCpltCallback), (2 bytes).
    Removing stm32f3xx_hal_uart.o(i.HAL_UART_Transmit), (180 bytes).
    Removing stm32f3xx_hal_uart.o(i.HAL_UART_Transmit_IT), (62 bytes).
    Removing stm32f3xx_hal_uart.o(i.UART_DMARxAbortCallback), (52 bytes).
    Removing stm32f3xx_hal_uart.o(i.UART_DMARxOnlyAbortCallback), (28 bytes).
    Removing stm32f3xx_hal_uart.o(i.UART_DMATxAbortCallback), (52 bytes).
    Removing stm32f3xx_hal_uart.o(i.UART_DMATxOnlyAbortCallback), (22 bytes).
    Removing stm32f3xx_hal_uart.o(i.UART_Wakeup_AddressConfig), (30 bytes).
    Removing stm32f3xx_hal_uart_ex.o(.rev16_text), (4 bytes).
    Removing stm32f3xx_hal_uart_ex.o(.revsh_text), (4 bytes).
    Removing stm32f3xx_hal_uart_ex.o(.rrx_text), (6 bytes).
    Removing stm32f3xx_hal_uart_ex.o(i.HAL_MultiProcessorEx_AddressLength_Set), (48 bytes).
    Removing stm32f3xx_hal_uart_ex.o(i.HAL_RS485Ex_Init), (140 bytes).
    Removing stm32f3xx_hal_uart_ex.o(i.HAL_UARTEx_DisableStopMode), (46 bytes).
    Removing stm32f3xx_hal_uart_ex.o(i.HAL_UARTEx_EnableStopMode), (46 bytes).
    Removing stm32f3xx_hal_uart_ex.o(i.HAL_UARTEx_StopModeWakeUpSourceConfig), (118 bytes).
    Removing stm32f3xx_hal.o(.rev16_text), (4 bytes).
    Removing stm32f3xx_hal.o(.revsh_text), (4 bytes).
    Removing stm32f3xx_hal.o(.rrx_text), (6 bytes).
    Removing stm32f3xx_hal.o(i.HAL_DBGMCU_DisableDBGSleepMode), (16 bytes).
    Removing stm32f3xx_hal.o(i.HAL_DBGMCU_DisableDBGStandbyMode), (16 bytes).
    Removing stm32f3xx_hal.o(i.HAL_DBGMCU_DisableDBGStopMode), (16 bytes).
    Removing stm32f3xx_hal.o(i.HAL_DBGMCU_EnableDBGSleepMode), (16 bytes).
    Removing stm32f3xx_hal.o(i.HAL_DBGMCU_EnableDBGStandbyMode), (16 bytes).
    Removing stm32f3xx_hal.o(i.HAL_DBGMCU_EnableDBGStopMode), (16 bytes).
    Removing stm32f3xx_hal.o(i.HAL_DeInit), (36 bytes).
    Removing stm32f3xx_hal.o(i.HAL_GetDEVID), (16 bytes).
    Removing stm32f3xx_hal.o(i.HAL_GetHalVersion), (8 bytes).
    Removing stm32f3xx_hal.o(i.HAL_GetREVID), (12 bytes).
    Removing stm32f3xx_hal.o(i.HAL_GetTickFreq), (12 bytes).
    Removing stm32f3xx_hal.o(i.HAL_GetTickPrio), (12 bytes).
    Removing stm32f3xx_hal.o(i.HAL_GetUIDw0), (12 bytes).
    Removing stm32f3xx_hal.o(i.HAL_GetUIDw1), (12 bytes).
    Removing stm32f3xx_hal.o(i.HAL_GetUIDw2), (12 bytes).
    Removing stm32f3xx_hal.o(i.HAL_MspDeInit), (2 bytes).
    Removing stm32f3xx_hal.o(i.HAL_MspInit), (2 bytes).
    Removing stm32f3xx_hal.o(i.HAL_ResumeTick), (14 bytes).
    Removing stm32f3xx_hal.o(i.HAL_SetTickFreq), (28 bytes).
    Removing stm32f3xx_hal.o(i.HAL_SuspendTick), (14 bytes).
    Removing stm32f3xx_hal_rcc.o(.rev16_text), (4 bytes).
    Removing stm32f3xx_hal_rcc.o(.revsh_text), (4 bytes).
    Removing stm32f3xx_hal_rcc.o(.rrx_text), (6 bytes).
    Removing stm32f3xx_hal_rcc.o(i.HAL_RCC_CSSCallback), (2 bytes).
    Removing stm32f3xx_hal_rcc.o(i.HAL_RCC_DeInit), (216 bytes).
    Removing stm32f3xx_hal_rcc.o(i.HAL_RCC_DisableCSS), (28 bytes).
    Removing stm32f3xx_hal_rcc.o(i.HAL_RCC_EnableCSS), (24 bytes).
    Removing stm32f3xx_hal_rcc.o(i.HAL_RCC_GetClockConfig), (64 bytes).
    Removing stm32f3xx_hal_rcc.o(i.HAL_RCC_GetHCLKFreq), (12 bytes).
    Removing stm32f3xx_hal_rcc.o(i.HAL_RCC_GetOscConfig), (156 bytes).
    Removing stm32f3xx_hal_rcc.o(i.HAL_RCC_MCOConfig), (72 bytes).
    Removing stm32f3xx_hal_rcc.o(i.HAL_RCC_NMI_IRQHandler), (24 bytes).
    Removing stm32f3xx_hal_rcc_ex.o(.rev16_text), (4 bytes).
    Removing stm32f3xx_hal_rcc_ex.o(.revsh_text), (4 bytes).
    Removing stm32f3xx_hal_rcc_ex.o(.rrx_text), (6 bytes).
    Removing stm32f3xx_hal_rcc_ex.o(i.HAL_RCCEx_GetPeriphCLKConfig), (156 bytes).
    Removing stm32f3xx_hal_rcc_ex.o(i.HAL_RCCEx_GetPeriphCLKFreq), (516 bytes).
    Removing stm32f3xx_hal_rcc_ex.o(i.RCC_GetPLLCLKFreq), (60 bytes).
    Removing stm32f3xx_hal_rcc_ex.o(.constdata), (32 bytes).
    Removing stm32f3xx_hal_gpio.o(.rev16_text), (4 bytes).
    Removing stm32f3xx_hal_gpio.o(.revsh_text), (4 bytes).
    Removing stm32f3xx_hal_gpio.o(.rrx_text), (6 bytes).
    Removing stm32f3xx_hal_gpio.o(i.HAL_GPIO_DeInit), (240 bytes).
    Removing stm32f3xx_hal_gpio.o(i.HAL_GPIO_EXTI_Callback), (2 bytes).
    Removing stm32f3xx_hal_gpio.o(i.HAL_GPIO_EXTI_IRQHandler), (24 bytes).
    Removing stm32f3xx_hal_gpio.o(i.HAL_GPIO_LockPin), (34 bytes).
    Removing stm32f3xx_hal_gpio.o(i.HAL_GPIO_TogglePin), (8 bytes).
    Removing stm32f3xx_hal_dma.o(.rev16_text), (4 bytes).
    Removing stm32f3xx_hal_dma.o(.revsh_text), (4 bytes).
    Removing stm32f3xx_hal_dma.o(.rrx_text), (6 bytes).
    Removing stm32f3xx_hal_dma.o(i.HAL_DMA_DeInit), (78 bytes).
    Removing stm32f3xx_hal_dma.o(i.HAL_DMA_GetError), (4 bytes).
    Removing stm32f3xx_hal_dma.o(i.HAL_DMA_GetState), (6 bytes).
    Removing stm32f3xx_hal_dma.o(i.HAL_DMA_PollForTransfer), (196 bytes).
    Removing stm32f3xx_hal_dma.o(i.HAL_DMA_RegisterCallback), (74 bytes).
    Removing stm32f3xx_hal_dma.o(i.HAL_DMA_Start), (80 bytes).
    Removing stm32f3xx_hal_dma.o(i.HAL_DMA_UnRegisterCallback), (82 bytes).
    Removing stm32f3xx_hal_cortex.o(.rev16_text), (4 bytes).
    Removing stm32f3xx_hal_cortex.o(.revsh_text), (4 bytes).
    Removing stm32f3xx_hal_cortex.o(.rrx_text), (6 bytes).
    Removing stm32f3xx_hal_cortex.o(i.HAL_MPU_ConfigRegion), (84 bytes).
    Removing stm32f3xx_hal_cortex.o(i.HAL_MPU_Disable), (24 bytes).
    Removing stm32f3xx_hal_cortex.o(i.HAL_MPU_Enable), (28 bytes).
    Removing stm32f3xx_hal_cortex.o(i.HAL_NVIC_ClearPendingIRQ), (22 bytes).
    Removing stm32f3xx_hal_cortex.o(i.HAL_NVIC_GetActive), (32 bytes).
    Removing stm32f3xx_hal_cortex.o(i.HAL_NVIC_GetPendingIRQ), (32 bytes).
    Removing stm32f3xx_hal_cortex.o(i.HAL_NVIC_GetPriority), (84 bytes).
    Removing stm32f3xx_hal_cortex.o(i.HAL_NVIC_GetPriorityGrouping), (16 bytes).
    Removing stm32f3xx_hal_cortex.o(i.HAL_NVIC_SetPendingIRQ), (22 bytes).
    Removing stm32f3xx_hal_cortex.o(i.HAL_NVIC_SystemReset), (36 bytes).
    Removing stm32f3xx_hal_cortex.o(i.HAL_SYSTICK_CLKSourceConfig), (24 bytes).
    Removing stm32f3xx_hal_cortex.o(i.HAL_SYSTICK_Callback), (2 bytes).
    Removing stm32f3xx_hal_cortex.o(i.HAL_SYSTICK_IRQHandler), (8 bytes).
    Removing stm32f3xx_hal_pwr.o(.rev16_text), (4 bytes).
    Removing stm32f3xx_hal_pwr.o(.revsh_text), (4 bytes).
    Removing stm32f3xx_hal_pwr.o(.rrx_text), (6 bytes).
    Removing stm32f3xx_hal_pwr.o(i.HAL_PWR_DeInit), (24 bytes).
    Removing stm32f3xx_hal_pwr.o(i.HAL_PWR_DisableBkUpAccess), (16 bytes).
    Removing stm32f3xx_hal_pwr.o(i.HAL_PWR_DisableSEVOnPend), (16 bytes).
    Removing stm32f3xx_hal_pwr.o(i.HAL_PWR_DisableSleepOnExit), (16 bytes).
    Removing stm32f3xx_hal_pwr.o(i.HAL_PWR_DisableWakeUpPin), (16 bytes).
    Removing stm32f3xx_hal_pwr.o(i.HAL_PWR_EnableBkUpAccess), (16 bytes).
    Removing stm32f3xx_hal_pwr.o(i.HAL_PWR_EnableSEVOnPend), (16 bytes).
    Removing stm32f3xx_hal_pwr.o(i.HAL_PWR_EnableSleepOnExit), (16 bytes).
    Removing stm32f3xx_hal_pwr.o(i.HAL_PWR_EnableWakeUpPin), (16 bytes).
    Removing stm32f3xx_hal_pwr.o(i.HAL_PWR_EnterSLEEPMode), (32 bytes).
    Removing stm32f3xx_hal_pwr.o(i.HAL_PWR_EnterSTANDBYMode), (32 bytes).
    Removing stm32f3xx_hal_pwr.o(i.HAL_PWR_EnterSTOPMode), (56 bytes).
    Removing stm32f3xx_hal_pwr_ex.o(.rev16_text), (4 bytes).
    Removing stm32f3xx_hal_pwr_ex.o(.revsh_text), (4 bytes).
    Removing stm32f3xx_hal_pwr_ex.o(.rrx_text), (6 bytes).
    Removing stm32f3xx_hal_pwr_ex.o(i.HAL_PWR_ConfigPVD), (124 bytes).
    Removing stm32f3xx_hal_pwr_ex.o(i.HAL_PWR_DisablePVD), (16 bytes).
    Removing stm32f3xx_hal_pwr_ex.o(i.HAL_PWR_EnablePVD), (16 bytes).
    Removing stm32f3xx_hal_pwr_ex.o(i.HAL_PWR_PVDCallback), (2 bytes).
    Removing stm32f3xx_hal_pwr_ex.o(i.HAL_PWR_PVD_IRQHandler), (28 bytes).
    Removing stm32f3xx_hal_flash.o(.rev16_text), (4 bytes).
    Removing stm32f3xx_hal_flash.o(.revsh_text), (4 bytes).
    Removing stm32f3xx_hal_flash.o(.rrx_text), (6 bytes).
    Removing stm32f3xx_hal_flash.o(i.FLASH_Program_HalfWord), (28 bytes).
    Removing stm32f3xx_hal_flash.o(i.HAL_FLASH_EndOfOperationCallback), (2 bytes).
    Removing stm32f3xx_hal_flash.o(i.HAL_FLASH_GetError), (12 bytes).
    Removing stm32f3xx_hal_flash.o(i.HAL_FLASH_IRQHandler), (264 bytes).
    Removing stm32f3xx_hal_flash.o(i.HAL_FLASH_Lock), (20 bytes).
    Removing stm32f3xx_hal_flash.o(i.HAL_FLASH_OB_Launch), (24 bytes).
    Removing stm32f3xx_hal_flash.o(i.HAL_FLASH_OB_Lock), (20 bytes).
    Removing stm32f3xx_hal_flash.o(i.HAL_FLASH_OB_Unlock), (36 bytes).
    Removing stm32f3xx_hal_flash.o(i.HAL_FLASH_OperationErrorCallback), (2 bytes).
    Removing stm32f3xx_hal_flash.o(i.HAL_FLASH_Program), (132 bytes).
    Removing stm32f3xx_hal_flash.o(i.HAL_FLASH_Program_IT), (96 bytes).
    Removing stm32f3xx_hal_flash_ex.o(.rev16_text), (4 bytes).
    Removing stm32f3xx_hal_flash_ex.o(.revsh_text), (4 bytes).
    Removing stm32f3xx_hal_flash_ex.o(.rrx_text), (6 bytes).
    Removing stm32f3xx_hal_flash_ex.o(i.FLASH_OB_DisableWRP), (176 bytes).
    Removing stm32f3xx_hal_flash_ex.o(i.FLASH_OB_EnableWRP), (176 bytes).
    Removing stm32f3xx_hal_flash_ex.o(i.FLASH_OB_GetRDP), (32 bytes).
    Removing stm32f3xx_hal_flash_ex.o(i.FLASH_OB_RDP_LevelConfig), (100 bytes).
    Removing stm32f3xx_hal_flash_ex.o(i.HAL_FLASHEx_Erase_IT), (84 bytes).
    Removing stm32f3xx_hal_flash_ex.o(i.HAL_FLASHEx_OBErase), (84 bytes).
    Removing stm32f3xx_hal_flash_ex.o(i.HAL_FLASHEx_OBGetConfig), (48 bytes).
    Removing stm32f3xx_hal_flash_ex.o(i.HAL_FLASHEx_OBGetUserData), (48 bytes).
    Removing stm32f3xx_hal_flash_ex.o(i.HAL_FLASHEx_OBProgram), (200 bytes).
    Removing stm32f3xx_hal_i2c.o(.rev16_text), (4 bytes).
    Removing stm32f3xx_hal_i2c.o(.revsh_text), (4 bytes).
    Removing stm32f3xx_hal_i2c.o(.rrx_text), (6 bytes).
    Removing stm32f3xx_hal_i2c_ex.o(.rev16_text), (4 bytes).
    Removing stm32f3xx_hal_i2c_ex.o(.revsh_text), (4 bytes).
    Removing stm32f3xx_hal_i2c_ex.o(.rrx_text), (6 bytes).
    Removing stm32f3xx_hal_crc.o(.rev16_text), (4 bytes).
    Removing stm32f3xx_hal_crc.o(.revsh_text), (4 bytes).
    Removing stm32f3xx_hal_crc.o(.rrx_text), (6 bytes).
    Removing stm32f3xx_hal_crc.o(i.CRC_Handle_16), (46 bytes).
    Removing stm32f3xx_hal_crc.o(i.CRC_Handle_8), (100 bytes).
    Removing stm32f3xx_hal_crc.o(i.HAL_CRC_Accumulate), (88 bytes).
    Removing stm32f3xx_hal_crc.o(i.HAL_CRC_Calculate), (102 bytes).
    Removing stm32f3xx_hal_crc.o(i.HAL_CRC_DeInit), (52 bytes).
    Removing stm32f3xx_hal_crc.o(i.HAL_CRC_GetState), (4 bytes).
    Removing stm32f3xx_hal_crc.o(i.HAL_CRC_Init), (116 bytes).
    Removing stm32f3xx_hal_crc.o(i.HAL_CRC_MspDeInit), (2 bytes).
    Removing stm32f3xx_hal_crc.o(i.HAL_CRC_MspInit), (2 bytes).
    Removing stm32f3xx_hal_crc_ex.o(.rev16_text), (4 bytes).
    Removing stm32f3xx_hal_crc_ex.o(.revsh_text), (4 bytes).
    Removing stm32f3xx_hal_crc_ex.o(.rrx_text), (6 bytes).
    Removing stm32f3xx_hal_crc_ex.o(i.HAL_CRCEx_Input_Data_Reverse), (24 bytes).
    Removing stm32f3xx_hal_crc_ex.o(i.HAL_CRCEx_Output_Data_Reverse), (24 bytes).
    Removing stm32f3xx_hal_crc_ex.o(i.HAL_CRCEx_Polynomial_Set), (72 bytes).
    Removing stm32f3xx_hal_iwdg.o(.rev16_text), (4 bytes).
    Removing stm32f3xx_hal_iwdg.o(.revsh_text), (4 bytes).
    Removing stm32f3xx_hal_iwdg.o(.rrx_text), (6 bytes).
    Removing system_stm32f3xx.o(.rev16_text), (4 bytes).
    Removing system_stm32f3xx.o(.revsh_text), (4 bytes).
    Removing system_stm32f3xx.o(.rrx_text), (6 bytes).
    Removing system_stm32f3xx.o(i.SystemCoreClockUpdate), (112 bytes).
    Removing m2g.o(.rev16_text), (4 bytes).
    Removing m2g.o(.revsh_text), (4 bytes).
    Removing m2g.o(.rrx_text), (6 bytes).
    Removing m2g.o(i.Heart_BeatLoop), (200 bytes).
    Removing m2g.o(i.Query_Parse), (472 bytes).
    Removing m2g.o(i.ReceiveData_Parse), (564 bytes).
    Removing m2g.o(i.m26_Loop), (48 bytes).
    Removing m2g.o(i.m26_Status_ReportLoop), (196 bytes).
    Removing m2g.o(i.m26_restart), (56 bytes).
    Removing m2g.o(i.m28_SendLoop), (416 bytes).
    Removing touchkey.o(.rev16_text), (4 bytes).
    Removing touchkey.o(.revsh_text), (4 bytes).
    Removing touchkey.o(.rrx_text), (6 bytes).
    Removing touchkey.o(i.Get_Systime), (4 bytes).
    Removing touchkey.o(i.I2C_TouchGetKey), (2 bytes).
    Removing touchkey.o(i.Key_PinConfig), (88 bytes).
    Removing touchkey.o(i.Key_Register), (2 bytes).
    Removing touchkey.o(i.TouchKey_Loop), (24 bytes).
    Removing touchkey.o(i.endtimer), (2 bytes).
    Removing touchkey.o(i.starttimer), (2 bytes).
    Removing touchkey.o(i.touchEXtenddReadData), (4 bytes).
    Removing touchkey.o(i.touchKey_Interrupt), (2 bytes).
    Removing touchkey.o(i.touchkey_error), (2 bytes).
    Removing touchkey.o(i.touchkey_register), (28 bytes).
    Removing touchkey.o(i.touchkeyreaddata), (2 bytes).
    Removing touchkey.o(.data), (1 bytes).
    Removing touchkey.o(.data), (4 bytes).
    Removing touchkey.o(.data), (1 bytes).
    Removing touchkey.o(.data), (4 bytes).
    Removing touchkey.o(.data), (4 bytes).
    Removing touchkey.o(.data), (4 bytes).
    Removing touchkey.o(.data), (4 bytes).
    Removing touchkey.o(.data), (2 bytes).
    Removing touchkey.o(.data), (1 bytes).
    Removing touchkey.o(.data), (1 bytes).
    Removing server_data.o(.rev16_text), (4 bytes).
    Removing server_data.o(.revsh_text), (4 bytes).
    Removing server_data.o(.rrx_text), (6 bytes).
    Removing server_data.o(i.APP_Register), (2 bytes).
    Removing server_data.o(i.CRC_Cal_Value), (48 bytes).
    Removing server_data.o(i.CRC_Hradware_Init), (52 bytes).
    Removing server_data.o(i.DataToServer2Minutes), (2 bytes).
    Removing server_data.o(i.DataToServerHeartBeat), (164 bytes).
    Removing server_data.o(i.DataToServerPushEvent), (2 bytes).
    Removing server_data.o(i.DataToServerRegister), (172 bytes).
    Removing server_data.o(i.NetConfig_Parse), (36 bytes).
    Removing server_data.o(i.Push_Net_Config), (432 bytes).
    Removing server_data.o(i.Push_Sw_Config), (288 bytes).
    Removing server_data.o(i.RegesterByServer), (2 bytes).
    Removing server_data.o(i.SW_Netconfig), (36 bytes).
    Removing server_data.o(i.Status_ReportMessage), (224 bytes).
    Removing server_data.o(.bss), (256 bytes).
    Removing server_data.o(.data), (4 bytes).
    Removing server_data.o(.data), (16 bytes).
    Removing crc32.o(.rev16_text), (4 bytes).
    Removing crc32.o(.revsh_text), (4 bytes).
    Removing crc32.o(.rrx_text), (6 bytes).
    Removing crc32.o(i.crc32), (44 bytes).
    Removing crc32.o(.data), (1024 bytes).
    Removing dfixi.o(.text), (62 bytes).
    Removing cdcmple.o(.text), (48 bytes).

555 unused section(s) (total 37269 bytes) removed from the image.

==============================================================================

Image Symbol Table

    Local Symbols

    Symbol Name                              Value     Ov Type        Size  Object(Section)

    ../Drivers/STM32F3xx_HAL_Driver/Src/stm32f3xx_hal.c 0x00000000   Number         0  stm32f3xx_hal.o ABSOLUTE
    ../Drivers/STM32F3xx_HAL_Driver/Src/stm32f3xx_hal_adc.c 0x00000000   Number         0  stm32f3xx_hal_adc.o ABSOLUTE
    ../Drivers/STM32F3xx_HAL_Driver/Src/stm32f3xx_hal_adc_ex.c 0x00000000   Number         0  stm32f3xx_hal_adc_ex.o ABSOLUTE
    ../Drivers/STM32F3xx_HAL_Driver/Src/stm32f3xx_hal_cortex.c 0x00000000   Number         0  stm32f3xx_hal_cortex.o ABSOLUTE
    ../Drivers/STM32F3xx_HAL_Driver/Src/stm32f3xx_hal_dma.c 0x00000000   Number         0  stm32f3xx_hal_dma.o ABSOLUTE
    ../Drivers/STM32F3xx_HAL_Driver/Src/stm32f3xx_hal_flash.c 0x00000000   Number         0  stm32f3xx_hal_flash.o ABSOLUTE
    ../Drivers/STM32F3xx_HAL_Driver/Src/stm32f3xx_hal_flash_ex.c 0x00000000   Number         0  stm32f3xx_hal_flash_ex.o ABSOLUTE
    ../Drivers/STM32F3xx_HAL_Driver/Src/stm32f3xx_hal_gpio.c 0x00000000   Number         0  stm32f3xx_hal_gpio.o ABSOLUTE
    ../Drivers/STM32F3xx_HAL_Driver/Src/stm32f3xx_hal_i2c.c 0x00000000   Number         0  stm32f3xx_hal_i2c.o ABSOLUTE
    ../Drivers/STM32F3xx_HAL_Driver/Src/stm32f3xx_hal_i2c_ex.c 0x00000000   Number         0  stm32f3xx_hal_i2c_ex.o ABSOLUTE
    ../Drivers/STM32F3xx_HAL_Driver/Src/stm32f3xx_hal_pwr.c 0x00000000   Number         0  stm32f3xx_hal_pwr.o ABSOLUTE
    ../Drivers/STM32F3xx_HAL_Driver/Src/stm32f3xx_hal_pwr_ex.c 0x00000000   Number         0  stm32f3xx_hal_pwr_ex.o ABSOLUTE
    ../Drivers/STM32F3xx_HAL_Driver/Src/stm32f3xx_hal_rcc.c 0x00000000   Number         0  stm32f3xx_hal_rcc.o ABSOLUTE
    ../Drivers/STM32F3xx_HAL_Driver/Src/stm32f3xx_hal_rcc_ex.c 0x00000000   Number         0  stm32f3xx_hal_rcc_ex.o ABSOLUTE
    ../Drivers/STM32F3xx_HAL_Driver/Src/stm32f3xx_hal_tim.c 0x00000000   Number         0  stm32f3xx_hal_tim.o ABSOLUTE
    ../Drivers/STM32F3xx_HAL_Driver/Src/stm32f3xx_hal_tim_ex.c 0x00000000   Number         0  stm32f3xx_hal_tim_ex.o ABSOLUTE
    ../Drivers/STM32F3xx_HAL_Driver/Src/stm32f3xx_hal_uart.c 0x00000000   Number         0  stm32f3xx_hal_uart.o ABSOLUTE
    ../Drivers/STM32F3xx_HAL_Driver/Src/stm32f3xx_hal_uart_ex.c 0x00000000   Number         0  stm32f3xx_hal_uart_ex.o ABSOLUTE
    ../Src/main.c                            0x00000000   Number         0  main.o ABSOLUTE
    ../Src/stm32f3xx_hal_msp.c               0x00000000   Number         0  stm32f3xx_hal_msp.o ABSOLUTE
    ../Src/stm32f3xx_it.c                    0x00000000   Number         0  stm32f3xx_it.o ABSOLUTE
    ../Src/system_stm32f3xx.c                0x00000000   Number         0  system_stm32f3xx.o ABSOLUTE
    ../clib/../cmprslib/zerorunl.c           0x00000000   Number         0  __dczerorl.o ABSOLUTE
    ../clib/microlib/division.c              0x00000000   Number         0  uidiv.o ABSOLUTE
    ../clib/microlib/division.c              0x00000000   Number         0  uldiv.o ABSOLUTE
    ../clib/microlib/errno.c                 0x00000000   Number         0  errno.o ABSOLUTE
    ../clib/microlib/init/entry.s            0x00000000   Number         0  entry8a.o ABSOLUTE
    ../clib/microlib/init/entry.s            0x00000000   Number         0  entry8b.o ABSOLUTE
    ../clib/microlib/init/entry.s            0x00000000   Number         0  entry.o ABSOLUTE
    ../clib/microlib/init/entry.s            0x00000000   Number         0  entry9a.o ABSOLUTE
    ../clib/microlib/init/entry.s            0x00000000   Number         0  entry9b.o ABSOLUTE
    ../clib/microlib/init/entry.s            0x00000000   Number         0  entry2.o ABSOLUTE
    ../clib/microlib/init/entry.s            0x00000000   Number         0  entry10a.o ABSOLUTE
    ../clib/microlib/init/entry.s            0x00000000   Number         0  entry10b.o ABSOLUTE
    ../clib/microlib/init/entry.s            0x00000000   Number         0  entry11a.o ABSOLUTE
    ../clib/microlib/init/entry.s            0x00000000   Number         0  entry7a.o ABSOLUTE
    ../clib/microlib/init/entry.s            0x00000000   Number         0  entry11b.o ABSOLUTE
    ../clib/microlib/init/entry.s            0x00000000   Number         0  entry5.o ABSOLUTE
    ../clib/microlib/init/entry.s            0x00000000   Number         0  entry7b.o ABSOLUTE
    ../clib/microlib/longlong.c              0x00000000   Number         0  llshl.o ABSOLUTE
    ../clib/microlib/longlong.c              0x00000000   Number         0  llsshr.o ABSOLUTE
    ../clib/microlib/longlong.c              0x00000000   Number         0  llushr.o ABSOLUTE
    ../clib/microlib/printf/printf.c         0x00000000   Number         0  printf8.o ABSOLUTE
    ../clib/microlib/printf/printf.c         0x00000000   Number         0  printfa.o ABSOLUTE
    ../clib/microlib/printf/printf.c         0x00000000   Number         0  printfb.o ABSOLUTE
    ../clib/microlib/printf/printf.c         0x00000000   Number         0  printf5.o ABSOLUTE
    ../clib/microlib/printf/printf.c         0x00000000   Number         0  printf4.o ABSOLUTE
    ../clib/microlib/printf/printf.c         0x00000000   Number         0  printf3.o ABSOLUTE
    ../clib/microlib/printf/printf.c         0x00000000   Number         0  printf2.o ABSOLUTE
    ../clib/microlib/printf/printf.c         0x00000000   Number         0  printf0.o ABSOLUTE
    ../clib/microlib/printf/printf.c         0x00000000   Number         0  printf6.o ABSOLUTE
    ../clib/microlib/printf/printf.c         0x00000000   Number         0  printf1.o ABSOLUTE
    ../clib/microlib/printf/printf.c         0x00000000   Number         0  printf7.o ABSOLUTE
    ../clib/microlib/printf/stubs.s          0x00000000   Number         0  stubs.o ABSOLUTE
    ../clib/microlib/stdio/fputc.c           0x00000000   Number         0  fputc.o ABSOLUTE
    ../clib/microlib/stdio/semi.s            0x00000000   Number         0  semi.o ABSOLUTE
    ../clib/microlib/stdio/streams.c         0x00000000   Number         0  stdout.o ABSOLUTE
    ../clib/microlib/string/memcpy.c         0x00000000   Number         0  memcpyb.o ABSOLUTE
    ../clib/microlib/string/memcpy.c         0x00000000   Number         0  memcpya.o ABSOLUTE
    ../clib/microlib/string/memset.c         0x00000000   Number         0  memseta.o ABSOLUTE
    ../clib/microlib/string/strlen.c         0x00000000   Number         0  strlen.o ABSOLUTE
    ../clib/microlib/string/strstr.c         0x00000000   Number         0  strstr.o ABSOLUTE
    ../clib/microlib/stubs.s                 0x00000000   Number         0  iusesemip.o ABSOLUTE
    ../clib/microlib/stubs.s                 0x00000000   Number         0  iusefp.o ABSOLUTE
    ../fplib/microlib/d2f.c                  0x00000000   Number         0  d2f.o ABSOLUTE
    ../fplib/microlib/f2d.c                  0x00000000   Number         0  f2d.o ABSOLUTE
    ../fplib/microlib/fpadd.c                0x00000000   Number         0  dadd.o ABSOLUTE
    ../fplib/microlib/fpdiv.c                0x00000000   Number         0  ddiv.o ABSOLUTE
    ../fplib/microlib/fpepilogue.c           0x00000000   Number         0  depilogue.o ABSOLUTE
    ../fplib/microlib/fpepilogue.c           0x00000000   Number         0  fepilogue.o ABSOLUTE
    ../fplib/microlib/fpfix.c                0x00000000   Number         0  dfixul.o ABSOLUTE
    ../fplib/microlib/fpfix.c                0x00000000   Number         0  dfixi.o ABSOLUTE
    ../fplib/microlib/fpflt.c                0x00000000   Number         0  dfltui.o ABSOLUTE
    ../fplib/microlib/fpflt.c                0x00000000   Number         0  dflti.o ABSOLUTE
    ../fplib/microlib/fpmul.c                0x00000000   Number         0  dmul.o ABSOLUTE
    ../fplib/microlib/fpsqrt.c               0x00000000   Number         0  dsqrt.o ABSOLUTE
    ../mathlib/sqrt.c                        0x00000000   Number         0  sqrt.o ABSOLUTE
    ../mathlib/sqrt.c                        0x00000000   Number         0  sqrt_x.o ABSOLUTE
    ..\Drivers\STM32F3xx_HAL_Driver\Src\stm32f3xx_hal.c 0x00000000   Number         0  stm32f3xx_hal.o ABSOLUTE
    ..\Drivers\STM32F3xx_HAL_Driver\Src\stm32f3xx_hal_adc.c 0x00000000   Number         0  stm32f3xx_hal_adc.o ABSOLUTE
    ..\Drivers\STM32F3xx_HAL_Driver\Src\stm32f3xx_hal_adc_ex.c 0x00000000   Number         0  stm32f3xx_hal_adc_ex.o ABSOLUTE
    ..\Drivers\STM32F3xx_HAL_Driver\Src\stm32f3xx_hal_cortex.c 0x00000000   Number         0  stm32f3xx_hal_cortex.o ABSOLUTE
    ..\Drivers\STM32F3xx_HAL_Driver\Src\stm32f3xx_hal_crc.c 0x00000000   Number         0  stm32f3xx_hal_crc.o ABSOLUTE
    ..\Drivers\STM32F3xx_HAL_Driver\Src\stm32f3xx_hal_crc_ex.c 0x00000000   Number         0  stm32f3xx_hal_crc_ex.o ABSOLUTE
    ..\Drivers\STM32F3xx_HAL_Driver\Src\stm32f3xx_hal_dma.c 0x00000000   Number         0  stm32f3xx_hal_dma.o ABSOLUTE
    ..\Drivers\STM32F3xx_HAL_Driver\Src\stm32f3xx_hal_flash.c 0x00000000   Number         0  stm32f3xx_hal_flash.o ABSOLUTE
    ..\Drivers\STM32F3xx_HAL_Driver\Src\stm32f3xx_hal_flash_ex.c 0x00000000   Number         0  stm32f3xx_hal_flash_ex.o ABSOLUTE
    ..\Drivers\STM32F3xx_HAL_Driver\Src\stm32f3xx_hal_gpio.c 0x00000000   Number         0  stm32f3xx_hal_gpio.o ABSOLUTE
    ..\Drivers\STM32F3xx_HAL_Driver\Src\stm32f3xx_hal_i2c.c 0x00000000   Number         0  stm32f3xx_hal_i2c.o ABSOLUTE
    ..\Drivers\STM32F3xx_HAL_Driver\Src\stm32f3xx_hal_i2c_ex.c 0x00000000   Number         0  stm32f3xx_hal_i2c_ex.o ABSOLUTE
    ..\Drivers\STM32F3xx_HAL_Driver\Src\stm32f3xx_hal_iwdg.c 0x00000000   Number         0  stm32f3xx_hal_iwdg.o ABSOLUTE
    ..\Drivers\STM32F3xx_HAL_Driver\Src\stm32f3xx_hal_pwr.c 0x00000000   Number         0  stm32f3xx_hal_pwr.o ABSOLUTE
    ..\Drivers\STM32F3xx_HAL_Driver\Src\stm32f3xx_hal_pwr_ex.c 0x00000000   Number         0  stm32f3xx_hal_pwr_ex.o ABSOLUTE
    ..\Drivers\STM32F3xx_HAL_Driver\Src\stm32f3xx_hal_rcc.c 0x00000000   Number         0  stm32f3xx_hal_rcc.o ABSOLUTE
    ..\Drivers\STM32F3xx_HAL_Driver\Src\stm32f3xx_hal_rcc_ex.c 0x00000000   Number         0  stm32f3xx_hal_rcc_ex.o ABSOLUTE
    ..\Drivers\STM32F3xx_HAL_Driver\Src\stm32f3xx_hal_tim.c 0x00000000   Number         0  stm32f3xx_hal_tim.o ABSOLUTE
    ..\Drivers\STM32F3xx_HAL_Driver\Src\stm32f3xx_hal_tim_ex.c 0x00000000   Number         0  stm32f3xx_hal_tim_ex.o ABSOLUTE
    ..\Drivers\STM32F3xx_HAL_Driver\Src\stm32f3xx_hal_uart.c 0x00000000   Number         0  stm32f3xx_hal_uart.o ABSOLUTE
    ..\Drivers\STM32F3xx_HAL_Driver\Src\stm32f3xx_hal_uart_ex.c 0x00000000   Number         0  stm32f3xx_hal_uart_ex.o ABSOLUTE
    ..\Lib\CRC32.c                           0x00000000   Number         0  crc32.o ABSOLUTE
    ..\Lib\M2G.c                             0x00000000   Number         0  m2g.o ABSOLUTE
    ..\Lib\RN8302B.c                         0x00000000   Number         0  rn8302b.o ABSOLUTE
    ..\Lib\Server_Data.c                     0x00000000   Number         0  server_data.o ABSOLUTE
    ..\Lib\System_Config.c                   0x00000000   Number         0  system_config.o ABSOLUTE
    ..\Lib\Tem_ADC.c                         0x00000000   Number         0  tem_adc.o ABSOLUTE
    ..\Lib\Touchkey.c                        0x00000000   Number         0  touchkey.o ABSOLUTE
    ..\Lib\ht1622x.c                         0x00000000   Number         0  ht1622x.o ABSOLUTE
    ..\Lib\lcd_rt625181.c                    0x00000000   Number         0  lcd_rt625181.o ABSOLUTE
    ..\Lib\lct_rt623832.c                    0x00000000   Number         0  lct_rt623832.o ABSOLUTE
    ..\Src\main.c                            0x00000000   Number         0  main.o ABSOLUTE
    ..\Src\stm32f3xx_hal_msp.c               0x00000000   Number         0  stm32f3xx_hal_msp.o ABSOLUTE
    ..\Src\stm32f3xx_it.c                    0x00000000   Number         0  stm32f3xx_it.o ABSOLUTE
    ..\Src\system_stm32f3xx.c                0x00000000   Number         0  system_stm32f3xx.o ABSOLUTE
    ..\\Drivers\\STM32F3xx_HAL_Driver\\Src\\stm32f3xx_hal_crc.c 0x00000000   Number         0  stm32f3xx_hal_crc.o ABSOLUTE
    ..\\Drivers\\STM32F3xx_HAL_Driver\\Src\\stm32f3xx_hal_crc_ex.c 0x00000000   Number         0  stm32f3xx_hal_crc_ex.o ABSOLUTE
    ..\\Drivers\\STM32F3xx_HAL_Driver\\Src\\stm32f3xx_hal_iwdg.c 0x00000000   Number         0  stm32f3xx_hal_iwdg.o ABSOLUTE
    ..\\Lib\\CRC32.c                         0x00000000   Number         0  crc32.o ABSOLUTE
    ..\\Lib\\M2G.c                           0x00000000   Number         0  m2g.o ABSOLUTE
    ..\\Lib\\RN8302B.c                       0x00000000   Number         0  rn8302b.o ABSOLUTE
    ..\\Lib\\Server_Data.c                   0x00000000   Number         0  server_data.o ABSOLUTE
    ..\\Lib\\System_Config.c                 0x00000000   Number         0  system_config.o ABSOLUTE
    ..\\Lib\\Tem_ADC.c                       0x00000000   Number         0  tem_adc.o ABSOLUTE
    ..\\Lib\\Touchkey.c                      0x00000000   Number         0  touchkey.o ABSOLUTE
    ..\\Lib\\ht1622x.c                       0x00000000   Number         0  ht1622x.o ABSOLUTE
    ..\\Lib\\lcd_rt625181.c                  0x00000000   Number         0  lcd_rt625181.o ABSOLUTE
    cdcmple.s                                0x00000000   Number         0  cdcmple.o ABSOLUTE
    cdrcmple.s                               0x00000000   Number         0  cdrcmple.o ABSOLUTE
    dc.s                                     0x00000000   Number         0  dc.o ABSOLUTE
    handlers.s                               0x00000000   Number         0  handlers.o ABSOLUTE
    init.s                                   0x00000000   Number         0  init.o ABSOLUTE
    startup_stm32f302xc.s                    0x00000000   Number         0  startup_stm32f302xc.o ABSOLUTE
    RESET                                    0x08000000   Section      392  startup_stm32f302xc.o(RESET)
    .ARM.Collect$$$$00000000                 0x08000188   Section        0  entry.o(.ARM.Collect$$$$00000000)
    .ARM.Collect$$$$00000001                 0x08000188   Section        4  entry2.o(.ARM.Collect$$$$00000001)
    .ARM.Collect$$$$00000004                 0x0800018c   Section        4  entry5.o(.ARM.Collect$$$$00000004)
    .ARM.Collect$$$$00000008                 0x08000190   Section        0  entry7b.o(.ARM.Collect$$$$00000008)
    .ARM.Collect$$$$0000000A                 0x08000190   Section        0  entry8b.o(.ARM.Collect$$$$0000000A)
    .ARM.Collect$$$$0000000B                 0x08000190   Section        8  entry9a.o(.ARM.Collect$$$$0000000B)
    .ARM.Collect$$$$0000000D                 0x08000198   Section        0  entry10a.o(.ARM.Collect$$$$0000000D)
    .ARM.Collect$$$$0000000F                 0x08000198   Section        0  entry11a.o(.ARM.Collect$$$$0000000F)
    .ARM.Collect$$$$00002712                 0x08000198   Section        4  entry2.o(.ARM.Collect$$$$00002712)
    __lit__00000000                          0x08000198   Data           4  entry2.o(.ARM.Collect$$$$00002712)
    .text                                    0x0800019c   Section       36  startup_stm32f302xc.o(.text)
    $v0                                      0x0800019c   Number         0  startup_stm32f302xc.o(.text)
    .text                                    0x080001c0   Section        0  llushr.o(.text)
    .text                                    0x080001e0   Section        0  memseta.o(.text)
    .text                                    0x08000204   Section        0  strlen.o(.text)
    .text                                    0x08000212   Section        0  dadd.o(.text)
    .text                                    0x08000360   Section        0  dmul.o(.text)
    .text                                    0x08000444   Section        0  ddiv.o(.text)
    .text                                    0x08000522   Section        0  dflti.o(.text)
    .text                                    0x08000544   Section        0  dfltui.o(.text)
    .text                                    0x0800055e   Section        0  f2d.o(.text)
    .text                                    0x08000584   Section        0  d2f.o(.text)
    .text                                    0x080005bc   Section        0  uidiv.o(.text)
    .text                                    0x080005e8   Section        0  uldiv.o(.text)
    .text                                    0x0800064a   Section        0  llshl.o(.text)
    .text                                    0x08000668   Section        0  llsshr.o(.text)
    .text                                    0x0800068c   Section        0  iusefp.o(.text)
    .text                                    0x0800068c   Section        0  fepilogue.o(.text)
    .text                                    0x080006fa   Section        0  depilogue.o(.text)
    .text                                    0x080007b4   Section        0  dsqrt.o(.text)
    .text                                    0x08000856   Section        0  dfixul.o(.text)
    .text                                    0x08000888   Section       48  cdrcmple.o(.text)
    .text                                    0x080008b8   Section       36  init.o(.text)
    .text                                    0x080008dc   Section        0  __dczerorl.o(.text)
    i.ADC1_2_IRQHandler                      0x08000918   Section        0  stm32f3xx_it.o(i.ADC1_2_IRQHandler)
    i.ADC_DMAConvCplt                        0x08000924   Section        0  stm32f3xx_hal_adc_ex.o(i.ADC_DMAConvCplt)
    ADC_DMAConvCplt                          0x08000925   Thumb Code    68  stm32f3xx_hal_adc_ex.o(i.ADC_DMAConvCplt)
    i.ADC_DMAError                           0x08000968   Section        0  stm32f3xx_hal_adc_ex.o(i.ADC_DMAError)
    ADC_DMAError                             0x08000969   Thumb Code    22  stm32f3xx_hal_adc_ex.o(i.ADC_DMAError)
    i.ADC_DMAHalfConvCplt                    0x0800097e   Section        0  stm32f3xx_hal_adc_ex.o(i.ADC_DMAHalfConvCplt)
    ADC_DMAHalfConvCplt                      0x0800097f   Thumb Code     6  stm32f3xx_hal_adc_ex.o(i.ADC_DMAHalfConvCplt)
    i.ADC_Disable                            0x08000984   Section        0  stm32f3xx_hal_adc_ex.o(i.ADC_Disable)
    ADC_Disable                              0x08000985   Thumb Code    96  stm32f3xx_hal_adc_ex.o(i.ADC_Disable)
    i.ADC_Enable                             0x080009e4   Section        0  stm32f3xx_hal_adc_ex.o(i.ADC_Enable)
    ADC_Enable                               0x080009e5   Thumb Code    90  stm32f3xx_hal_adc_ex.o(i.ADC_Enable)
    i.Beep_Init                              0x08000a44   Section        0  system_config.o(i.Beep_Init)
    i.Beep_Onoff                             0x08000a90   Section        0  system_config.o(i.Beep_Onoff)
    i.BusFault_Handler                       0x08000aa4   Section        0  stm32f3xx_it.o(i.BusFault_Handler)
    i.DMA1_Channel1_IRQHandler               0x08000aa8   Section        0  stm32f3xx_it.o(i.DMA1_Channel1_IRQHandler)
    i.DMA1_Channel2_IRQHandler               0x08000ab4   Section        0  stm32f3xx_it.o(i.DMA1_Channel2_IRQHandler)
    i.DMA1_Channel3_IRQHandler               0x08000ac0   Section        0  stm32f3xx_it.o(i.DMA1_Channel3_IRQHandler)
    i.DMA_CalcBaseAndBitshift                0x08000acc   Section        0  stm32f3xx_hal_dma.o(i.DMA_CalcBaseAndBitshift)
    DMA_CalcBaseAndBitshift                  0x08000acd   Thumb Code    48  stm32f3xx_hal_dma.o(i.DMA_CalcBaseAndBitshift)
    i.DMA_SetConfig                          0x08000b08   Section        0  stm32f3xx_hal_dma.o(i.DMA_SetConfig)
    DMA_SetConfig                            0x08000b09   Thumb Code    42  stm32f3xx_hal_dma.o(i.DMA_SetConfig)
    i.DebugMon_Handler                       0x08000b32   Section        0  stm32f3xx_it.o(i.DebugMon_Handler)
    i.Delay1us                               0x08000b34   Section        0  rn8302b.o(i.Delay1us)
    i.Delay2us                               0x08000b40   Section        0  main.o(i.Delay2us)
    i.Delay5ms                               0x08000b4c   Section        0  rn8302b.o(i.Delay5ms)
    i.Delay_10ms                             0x08000b66   Section        0  main.o(i.Delay_10ms)
    i.Delay_ms                               0x08000b82   Section        0  rn8302b.o(i.Delay_ms)
    i.Disp_ABC                               0x08000ba0   Section        0  lcd_rt625181.o(i.Disp_ABC)
    i.Disp_Number1                           0x08000c34   Section        0  lcd_rt625181.o(i.Disp_Number1)
    i.Disp_Number2                           0x08000d38   Section        0  lcd_rt625181.o(i.Disp_Number2)
    i.Disp_Number3                           0x08000e28   Section        0  lcd_rt625181.o(i.Disp_Number3)
    i.Disp_Number4                           0x08000f34   Section        0  lcd_rt625181.o(i.Disp_Number4)
    i.Disp_Number5                           0x08001034   Section        0  lcd_rt625181.o(i.Disp_Number5)
    i.Disp_Ram                               0x08001128   Section        0  lcd_rt625181.o(i.Disp_Ram)
    i.Disp_Sig                               0x08001140   Section        0  lcd_rt625181.o(i.Disp_Sig)
    i.Disp_Temper                            0x080011ec   Section        0  lcd_rt625181.o(i.Disp_Temper)
    i.EleHandle_Loop                         0x080012a0   Section        0  tem_adc.o(i.EleHandle_Loop)
    i.Error_Handler                          0x08001364   Section        0  main.o(i.Error_Handler)
    i.FLASH_MassErase                        0x08001368   Section        0  stm32f3xx_hal_flash_ex.o(i.FLASH_MassErase)
    FLASH_MassErase                          0x08001369   Thumb Code    26  stm32f3xx_hal_flash_ex.o(i.FLASH_MassErase)
    i.FLASH_PageErase                        0x0800138c   Section        0  stm32f3xx_hal_flash_ex.o(i.FLASH_PageErase)
    i.FLASH_SetErrorCode                     0x080013b0   Section        0  stm32f3xx_hal_flash.o(i.FLASH_SetErrorCode)
    FLASH_SetErrorCode                       0x080013b1   Thumb Code    44  stm32f3xx_hal_flash.o(i.FLASH_SetErrorCode)
    i.FLASH_WaitForLastOperation             0x080013e4   Section        0  stm32f3xx_hal_flash.o(i.FLASH_WaitForLastOperation)
    i.GetLeak                                0x08001434   Section        0  tem_adc.o(i.GetLeak)
    GetLeak                                  0x08001435   Thumb Code   482  tem_adc.o(i.GetLeak)
    i.HAL_ADCEx_Calibration_Start            0x08001708   Section        0  stm32f3xx_hal_adc_ex.o(i.HAL_ADCEx_Calibration_Start)
    i.HAL_ADCEx_InjectedConvCpltCallback     0x0800179c   Section        0  stm32f3xx_hal_adc_ex.o(i.HAL_ADCEx_InjectedConvCpltCallback)
    i.HAL_ADCEx_InjectedQueueOverflowCallback 0x0800179e   Section        0  stm32f3xx_hal_adc_ex.o(i.HAL_ADCEx_InjectedQueueOverflowCallback)
    i.HAL_ADCEx_LevelOutOfWindow2Callback    0x080017a0   Section        0  stm32f3xx_hal_adc_ex.o(i.HAL_ADCEx_LevelOutOfWindow2Callback)
    i.HAL_ADCEx_LevelOutOfWindow3Callback    0x080017a2   Section        0  stm32f3xx_hal_adc_ex.o(i.HAL_ADCEx_LevelOutOfWindow3Callback)
    i.HAL_ADCEx_MultiModeConfigChannel       0x080017a4   Section        0  stm32f3xx_hal_adc_ex.o(i.HAL_ADCEx_MultiModeConfigChannel)
    i.HAL_ADC_ConfigChannel                  0x08001880   Section        0  stm32f3xx_hal_adc_ex.o(i.HAL_ADC_ConfigChannel)
    i.HAL_ADC_ConvCpltCallback               0x08001bcc   Section        0  stm32f3xx_hal_adc.o(i.HAL_ADC_ConvCpltCallback)
    i.HAL_ADC_ConvHalfCpltCallback           0x08001bce   Section        0  stm32f3xx_hal_adc.o(i.HAL_ADC_ConvHalfCpltCallback)
    i.HAL_ADC_ErrorCallback                  0x08001bd0   Section        0  stm32f3xx_hal_adc.o(i.HAL_ADC_ErrorCallback)
    i.HAL_ADC_IRQHandler                     0x08001bd4   Section        0  stm32f3xx_hal_adc_ex.o(i.HAL_ADC_IRQHandler)
    i.HAL_ADC_Init                           0x08001e3c   Section        0  stm32f3xx_hal_adc_ex.o(i.HAL_ADC_Init)
    i.HAL_ADC_LevelOutOfWindowCallback       0x0800201c   Section        0  stm32f3xx_hal_adc.o(i.HAL_ADC_LevelOutOfWindowCallback)
    i.HAL_ADC_MspInit                        0x08002020   Section        0  stm32f3xx_hal_msp.o(i.HAL_ADC_MspInit)
    i.HAL_ADC_Start_DMA                      0x080020dc   Section        0  stm32f3xx_hal_adc_ex.o(i.HAL_ADC_Start_DMA)
    i.HAL_DMA_Abort                          0x080021e4   Section        0  stm32f3xx_hal_dma.o(i.HAL_DMA_Abort)
    i.HAL_DMA_Abort_IT                       0x08002214   Section        0  stm32f3xx_hal_dma.o(i.HAL_DMA_Abort_IT)
    i.HAL_DMA_IRQHandler                     0x0800225e   Section        0  stm32f3xx_hal_dma.o(i.HAL_DMA_IRQHandler)
    i.HAL_DMA_Init                           0x08002308   Section        0  stm32f3xx_hal_dma.o(i.HAL_DMA_Init)
    i.HAL_DMA_Start_IT                       0x08002356   Section        0  stm32f3xx_hal_dma.o(i.HAL_DMA_Start_IT)
    i.HAL_Delay                              0x080023c8   Section        0  stm32f3xx_hal.o(i.HAL_Delay)
    i.HAL_FLASHEx_Erase                      0x080023ec   Section        0  stm32f3xx_hal_flash_ex.o(i.HAL_FLASHEx_Erase)
    i.HAL_FLASH_Unlock                       0x08002494   Section        0  stm32f3xx_hal_flash.o(i.HAL_FLASH_Unlock)
    i.HAL_GPIO_Init                          0x080024bc   Section        0  stm32f3xx_hal_gpio.o(i.HAL_GPIO_Init)
    i.HAL_GPIO_ReadPin                       0x0800264c   Section        0  stm32f3xx_hal_gpio.o(i.HAL_GPIO_ReadPin)
    i.HAL_GPIO_WritePin                      0x08002656   Section        0  stm32f3xx_hal_gpio.o(i.HAL_GPIO_WritePin)
    i.HAL_GetTick                            0x08002660   Section        0  stm32f3xx_hal.o(i.HAL_GetTick)
    i.HAL_IWDG_Init                          0x0800266c   Section        0  stm32f3xx_hal_iwdg.o(i.HAL_IWDG_Init)
    i.HAL_IWDG_Refresh                       0x080026c8   Section        0  stm32f3xx_hal_iwdg.o(i.HAL_IWDG_Refresh)
    i.HAL_IncTick                            0x080026d4   Section        0  stm32f3xx_hal.o(i.HAL_IncTick)
    i.HAL_Init                               0x080026e4   Section        0  stm32f3xx_hal.o(i.HAL_Init)
    i.HAL_InitTick                           0x08002708   Section        0  stm32f3xx_hal.o(i.HAL_InitTick)
    i.HAL_MspInit                            0x08002748   Section        0  stm32f3xx_hal_msp.o(i.HAL_MspInit)
    i.HAL_NVIC_DisableIRQ                    0x08002774   Section        0  stm32f3xx_hal_cortex.o(i.HAL_NVIC_DisableIRQ)
    i.HAL_NVIC_EnableIRQ                     0x0800278a   Section        0  stm32f3xx_hal_cortex.o(i.HAL_NVIC_EnableIRQ)
    i.HAL_NVIC_SetPriority                   0x080027a0   Section        0  stm32f3xx_hal_cortex.o(i.HAL_NVIC_SetPriority)
    i.HAL_NVIC_SetPriorityGrouping           0x080027e0   Section        0  stm32f3xx_hal_cortex.o(i.HAL_NVIC_SetPriorityGrouping)
    i.HAL_RCCEx_PeriphCLKConfig              0x08002804   Section        0  stm32f3xx_hal_rcc_ex.o(i.HAL_RCCEx_PeriphCLKConfig)
    i.HAL_RCC_ClockConfig                    0x080029f8   Section        0  stm32f3xx_hal_rcc.o(i.HAL_RCC_ClockConfig)
    i.HAL_RCC_GetPCLK1Freq                   0x08002b44   Section        0  stm32f3xx_hal_rcc.o(i.HAL_RCC_GetPCLK1Freq)
    i.HAL_RCC_GetPCLK2Freq                   0x08002b74   Section        0  stm32f3xx_hal_rcc.o(i.HAL_RCC_GetPCLK2Freq)
    i.HAL_RCC_GetSysClockFreq                0x08002ba4   Section        0  stm32f3xx_hal_rcc.o(i.HAL_RCC_GetSysClockFreq)
    i.HAL_RCC_OscConfig                      0x08002c08   Section        0  stm32f3xx_hal_rcc.o(i.HAL_RCC_OscConfig)
    i.HAL_SYSTICK_Config                     0x080031ac   Section        0  stm32f3xx_hal_cortex.o(i.HAL_SYSTICK_Config)
    i.HAL_TIMEx_Break2Callback               0x080031d4   Section        0  stm32f3xx_hal_tim_ex.o(i.HAL_TIMEx_Break2Callback)
    i.HAL_TIMEx_BreakCallback                0x080031d6   Section        0  stm32f3xx_hal_tim_ex.o(i.HAL_TIMEx_BreakCallback)
    i.HAL_TIMEx_CommutationCallback          0x080031d8   Section        0  stm32f3xx_hal_tim_ex.o(i.HAL_TIMEx_CommutationCallback)
    i.HAL_TIMEx_MasterConfigSynchronization  0x080031dc   Section        0  stm32f3xx_hal_tim_ex.o(i.HAL_TIMEx_MasterConfigSynchronization)
    i.HAL_TIM_Base_Init                      0x08003228   Section        0  stm32f3xx_hal_tim.o(i.HAL_TIM_Base_Init)
    i.HAL_TIM_Base_MspInit                   0x08003260   Section        0  stm32f3xx_hal_msp.o(i.HAL_TIM_Base_MspInit)
    i.HAL_TIM_Base_Start_IT                  0x080032c0   Section        0  stm32f3xx_hal_tim.o(i.HAL_TIM_Base_Start_IT)
    i.HAL_TIM_Base_Stop_IT                   0x080032d8   Section        0  stm32f3xx_hal_tim.o(i.HAL_TIM_Base_Stop_IT)
    i.HAL_TIM_ConfigClockSource              0x08003304   Section        0  stm32f3xx_hal_tim.o(i.HAL_TIM_ConfigClockSource)
    i.HAL_TIM_IC_CaptureCallback             0x080033fc   Section        0  stm32f3xx_hal_tim.o(i.HAL_TIM_IC_CaptureCallback)
    i.HAL_TIM_IRQHandler                     0x080033fe   Section        0  stm32f3xx_hal_tim.o(i.HAL_TIM_IRQHandler)
    i.HAL_TIM_OC_DelayElapsedCallback        0x08003582   Section        0  stm32f3xx_hal_tim.o(i.HAL_TIM_OC_DelayElapsedCallback)
    i.HAL_TIM_PWM_PulseFinishedCallback      0x08003584   Section        0  stm32f3xx_hal_tim.o(i.HAL_TIM_PWM_PulseFinishedCallback)
    i.HAL_TIM_PeriodElapsedCallback          0x08003588   Section        0  tem_adc.o(i.HAL_TIM_PeriodElapsedCallback)
    i.HAL_TIM_TriggerCallback                0x0800360c   Section        0  stm32f3xx_hal_tim.o(i.HAL_TIM_TriggerCallback)
    i.HAL_UARTEx_WakeupCallback              0x0800360e   Section        0  stm32f3xx_hal_uart_ex.o(i.HAL_UARTEx_WakeupCallback)
    i.HAL_UART_DMAStop                       0x08003610   Section        0  stm32f3xx_hal_uart.o(i.HAL_UART_DMAStop)
    i.HAL_UART_ErrorCallback                 0x08003664   Section        0  stm32f3xx_hal_uart.o(i.HAL_UART_ErrorCallback)
    i.HAL_UART_IRQHandler                    0x08003668   Section        0  stm32f3xx_hal_uart.o(i.HAL_UART_IRQHandler)
    i.HAL_UART_Init                          0x080037a8   Section        0  stm32f3xx_hal_uart.o(i.HAL_UART_Init)
    i.HAL_UART_MspInit                       0x08003814   Section        0  stm32f3xx_hal_msp.o(i.HAL_UART_MspInit)
    i.HAL_UART_Receive_DMA                   0x08003904   Section        0  stm32f3xx_hal_uart.o(i.HAL_UART_Receive_DMA)
    i.HAL_UART_RxCpltCallback                0x08003998   Section        0  main.o(i.HAL_UART_RxCpltCallback)
    i.HAL_UART_RxHalfCpltCallback            0x080039b4   Section        0  stm32f3xx_hal_uart.o(i.HAL_UART_RxHalfCpltCallback)
    i.HAL_UART_Transmit_DMA                  0x080039b8   Section        0  stm32f3xx_hal_uart.o(i.HAL_UART_Transmit_DMA)
    i.HAL_UART_TxCpltCallback                0x08003a40   Section        0  stm32f3xx_hal_uart.o(i.HAL_UART_TxCpltCallback)
    i.HAL_UART_TxHalfCpltCallback            0x08003a42   Section        0  stm32f3xx_hal_uart.o(i.HAL_UART_TxHalfCpltCallback)
    i.HAL_USART_User                         0x08003a44   Section        0  m2g.o(i.HAL_USART_User)
    i.HardFault_Handler                      0x08003ae0   Section        0  stm32f3xx_it.o(i.HardFault_Handler)
    i.Key_ClearEvent                         0x08003ae4   Section        0  touchkey.o(i.Key_ClearEvent)
    i.Key_GetEvent                           0x08003af0   Section        0  touchkey.o(i.Key_GetEvent)
    i.Key_HandleByUser                       0x08003b30   Section        0  system_config.o(i.Key_HandleByUser)
    i.Key_Loop                               0x08003c98   Section        0  touchkey.o(i.Key_Loop)
    i.Key_PeriodHandle                       0x08003d1c   Section        0  touchkey.o(i.Key_PeriodHandle)
    i.Key_Press                              0x08003d40   Section        0  touchkey.o(i.Key_Press)
    i.Key_ReadFactory                        0x08003d78   Section        0  touchkey.o(i.Key_ReadFactory)
    i.Key_VirtualInit                        0x08003dac   Section        0  touchkey.o(i.Key_VirtualInit)
    i.LCD_PowerOn                            0x08003dd8   Section        0  lcd_rt625181.o(i.LCD_PowerOn)
    i.M26_PowerOn                            0x08003e24   Section        0  main.o(i.M26_PowerOn)
    i.MX_ADC1_Init                           0x08003e9c   Section        0  main.o(i.MX_ADC1_Init)
    MX_ADC1_Init                             0x08003e9d   Thumb Code   184  main.o(i.MX_ADC1_Init)
    i.MX_IWDG_Init1                          0x08003f58   Section        0  main.o(i.MX_IWDG_Init1)
    i.MX_TIM1_Init                           0x08003f78   Section        0  main.o(i.MX_TIM1_Init)
    MX_TIM1_Init                             0x08003f79   Thumb Code    86  main.o(i.MX_TIM1_Init)
    i.MX_TIM2_Init                           0x08003fd8   Section        0  main.o(i.MX_TIM2_Init)
    MX_TIM2_Init                             0x08003fd9   Thumb Code   102  main.o(i.MX_TIM2_Init)
    i.MX_USART3_UART_Init                    0x08004048   Section        0  main.o(i.MX_USART3_UART_Init)
    MX_USART3_UART_Init                      0x08004049   Thumb Code    42  main.o(i.MX_USART3_UART_Init)
    i.MemManage_Handler                      0x0800407c   Section        0  stm32f3xx_it.o(i.MemManage_Handler)
    i.Mode_adjust                            0x08004080   Section        0  system_config.o(i.Mode_adjust)
    i.NMI_Handler                            0x0800409c   Section        0  stm32f3xx_it.o(i.NMI_Handler)
    i.NVIC_SetPriority                       0x0800409e   Section        0  stm32f3xx_hal_cortex.o(i.NVIC_SetPriority)
    NVIC_SetPriority                         0x0800409f   Thumb Code    32  stm32f3xx_hal_cortex.o(i.NVIC_SetPriority)
    i.PendSV_Handler                         0x080040be   Section        0  stm32f3xx_it.o(i.PendSV_Handler)
    i.Query_Init                             0x080040c0   Section        0  m2g.o(i.Query_Init)
    i.RN8302B_CalibConfig                    0x080040dc   Section        0  rn8302b.o(i.RN8302B_CalibConfig)
    i.RN8302B_DCOffset                       0x08004108   Section        0  rn8302b.o(i.RN8302B_DCOffset)
    i.RN8302_CalibrateCurrentOffset          0x08004150   Section        0  rn8302b.o(i.RN8302_CalibrateCurrentOffset)
    i.RN8302_CalibrateIGain                  0x08004210   Section        0  rn8302b.o(i.RN8302_CalibrateIGain)
    i.RN8302_CalibrateInit                   0x08004318   Section        0  rn8302b.o(i.RN8302_CalibrateInit)
    i.RN8302_CalibrateUGain                  0x080045d4   Section        0  rn8302b.o(i.RN8302_CalibrateUGain)
    i.RN830B_SoftInit                        0x0800470c   Section        0  rn8302b.o(i.RN830B_SoftInit)
    i.ReadAvol                               0x08004808   Section        0  rn8302b.o(i.ReadAvol)
    i.SVC_Handler                            0x08004a64   Section        0  stm32f3xx_it.o(i.SVC_Handler)
    i.Switch_Alm                             0x08004a68   Section        0  system_config.o(i.Switch_Alm)
    i.Switch_Init                            0x08004a80   Section        0  system_config.o(i.Switch_Init)
    i.SysTem_SaveFileInit                    0x08004ad8   Section        0  system_config.o(i.SysTem_SaveFileInit)
    i.SysTick_Handler                        0x08004b00   Section        0  stm32f3xx_it.o(i.SysTick_Handler)
    i.SystemClock_Config                     0x08004b04   Section        0  main.o(i.SystemClock_Config)
    i.SystemInit                             0x08004b74   Section        0  system_stm32f3xx.o(i.SystemInit)
    i.System_Config                          0x08004bdc   Section        0  system_config.o(i.System_Config)
    i.System_EnterMode                       0x08004c18   Section        0  system_config.o(i.System_EnterMode)
    i.System_Led_Init                        0x08004cc8   Section        0  system_config.o(i.System_Led_Init)
    i.System_Led_Onoff                       0x08004d3c   Section        0  system_config.o(i.System_Led_Onoff)
    i.System_TimerPeriod                     0x08004d6c   Section        0  system_config.o(i.System_TimerPeriod)
    i.System_TimerUpdate                     0x08004e44   Section        0  system_config.o(i.System_TimerUpdate)
    i.TIM1_UP_TIM16_IRQHandler               0x08004fb0   Section        0  stm32f3xx_it.o(i.TIM1_UP_TIM16_IRQHandler)
    i.TIM2_IRQHandler                        0x08004fd4   Section        0  stm32f3xx_it.o(i.TIM2_IRQHandler)
    i.TIM_Base_SetConfig                     0x08004fe0   Section        0  stm32f3xx_hal_tim.o(i.TIM_Base_SetConfig)
    i.TIM_ETR_SetConfig                      0x08005078   Section        0  stm32f3xx_hal_tim.o(i.TIM_ETR_SetConfig)
    i.TIM_ITRx_SetConfig                     0x0800508c   Section        0  stm32f3xx_hal_tim.o(i.TIM_ITRx_SetConfig)
    TIM_ITRx_SetConfig                       0x0800508d   Thumb Code    16  stm32f3xx_hal_tim.o(i.TIM_ITRx_SetConfig)
    i.TIM_TI1_ConfigInputStage               0x0800509c   Section        0  stm32f3xx_hal_tim.o(i.TIM_TI1_ConfigInputStage)
    TIM_TI1_ConfigInputStage                 0x0800509d   Thumb Code    34  stm32f3xx_hal_tim.o(i.TIM_TI1_ConfigInputStage)
    i.TIM_TI2_ConfigInputStage               0x080050be   Section        0  stm32f3xx_hal_tim.o(i.TIM_TI2_ConfigInputStage)
    TIM_TI2_ConfigInputStage                 0x080050bf   Thumb Code    36  stm32f3xx_hal_tim.o(i.TIM_TI2_ConfigInputStage)
    i.Tem_AdcInit                            0x080050e4   Section        0  tem_adc.o(i.Tem_AdcInit)
    i.Tem_AdcLoop                            0x08005118   Section        0  tem_adc.o(i.Tem_AdcLoop)
    i.Tem_Gettemplate                        0x08005188   Section        0  tem_adc.o(i.Tem_Gettemplate)
    i.UART_AdvFeatureConfig                  0x08005204   Section        0  stm32f3xx_hal_uart.o(i.UART_AdvFeatureConfig)
    i.UART_CheckIdleState                    0x080052cc   Section        0  stm32f3xx_hal_uart.o(i.UART_CheckIdleState)
    i.UART_DMAAbortOnError                   0x08005328   Section        0  stm32f3xx_hal_uart.o(i.UART_DMAAbortOnError)
    UART_DMAAbortOnError                     0x08005329   Thumb Code    20  stm32f3xx_hal_uart.o(i.UART_DMAAbortOnError)
    i.UART_DMAError                          0x0800533c   Section        0  stm32f3xx_hal_uart.o(i.UART_DMAError)
    UART_DMAError                            0x0800533d   Thumb Code    74  stm32f3xx_hal_uart.o(i.UART_DMAError)
    i.UART_DMAReceiveCplt                    0x08005386   Section        0  stm32f3xx_hal_uart.o(i.UART_DMAReceiveCplt)
    UART_DMAReceiveCplt                      0x08005387   Thumb Code    62  stm32f3xx_hal_uart.o(i.UART_DMAReceiveCplt)
    i.UART_DMARxHalfCplt                     0x080053c4   Section        0  stm32f3xx_hal_uart.o(i.UART_DMARxHalfCplt)
    UART_DMARxHalfCplt                       0x080053c5   Thumb Code    10  stm32f3xx_hal_uart.o(i.UART_DMARxHalfCplt)
    i.UART_DMATransmitCplt                   0x080053ce   Section        0  stm32f3xx_hal_uart.o(i.UART_DMATransmitCplt)
    UART_DMATransmitCplt                     0x080053cf   Thumb Code    48  stm32f3xx_hal_uart.o(i.UART_DMATransmitCplt)
    i.UART_DMATxHalfCplt                     0x080053fe   Section        0  stm32f3xx_hal_uart.o(i.UART_DMATxHalfCplt)
    UART_DMATxHalfCplt                       0x080053ff   Thumb Code    10  stm32f3xx_hal_uart.o(i.UART_DMATxHalfCplt)
    i.UART_EndRxTransfer                     0x08005408   Section        0  stm32f3xx_hal_uart.o(i.UART_EndRxTransfer)
    UART_EndRxTransfer                       0x08005409   Thumb Code    28  stm32f3xx_hal_uart.o(i.UART_EndRxTransfer)
    i.UART_EndTransmit_IT                    0x08005424   Section        0  stm32f3xx_hal_uart.o(i.UART_EndTransmit_IT)
    i.UART_EndTxTransfer                     0x0800543e   Section        0  stm32f3xx_hal_uart.o(i.UART_EndTxTransfer)
    UART_EndTxTransfer                       0x0800543f   Thumb Code    18  stm32f3xx_hal_uart.o(i.UART_EndTxTransfer)
    i.UART_Receive_IT                        0x08005450   Section        0  stm32f3xx_hal_uart.o(i.UART_Receive_IT)
    i.UART_SetConfig                         0x080054c8   Section        0  stm32f3xx_hal_uart.o(i.UART_SetConfig)
    i.UART_Transmit_IT                       0x0800569c   Section        0  stm32f3xx_hal_uart.o(i.UART_Transmit_IT)
    i.UART_WaitOnFlagUntilTimeout            0x080056fe   Section        0  stm32f3xx_hal_uart.o(i.UART_WaitOnFlagUntilTimeout)
    i.USART3_IRQHandler                      0x08005760   Section        0  stm32f3xx_it.o(i.USART3_IRQHandler)
    i.UsageFault_Handler                     0x08005774   Section        0  stm32f3xx_it.o(i.UsageFault_Handler)
    i.Watch_Loop                             0x08005778   Section        0  system_config.o(i.Watch_Loop)
    i.__0sprintf                             0x080058d8   Section        0  printfa.o(i.__0sprintf)
    i.__hardfp_sqrt                          0x08005900   Section        0  sqrt.o(i.__hardfp_sqrt)
    i.__scatterload_copy                     0x0800597a   Section       14  handlers.o(i.__scatterload_copy)
    i.__scatterload_null                     0x08005988   Section        2  handlers.o(i.__scatterload_null)
    i.__scatterload_zeroinit                 0x0800598a   Section       14  handlers.o(i.__scatterload_zeroinit)
    i.__set_errno                            0x08005998   Section        0  errno.o(i.__set_errno)
    i._fp_digits                             0x080059a4   Section        0  printfa.o(i._fp_digits)
    _fp_digits                               0x080059a5   Thumb Code   366  printfa.o(i._fp_digits)
    i._printf_core                           0x08005b28   Section        0  printfa.o(i._printf_core)
    _printf_core                             0x08005b29   Thumb Code  1744  printfa.o(i._printf_core)
    i._printf_post_padding                   0x08006204   Section        0  printfa.o(i._printf_post_padding)
    _printf_post_padding                     0x08006205   Thumb Code    36  printfa.o(i._printf_post_padding)
    i._printf_pre_padding                    0x08006228   Section        0  printfa.o(i._printf_pre_padding)
    _printf_pre_padding                      0x08006229   Thumb Code    46  printfa.o(i._printf_pre_padding)
    i._sputc                                 0x08006256   Section        0  printfa.o(i._sputc)
    _sputc                                   0x08006257   Thumb Code    10  printfa.o(i._sputc)
    i.delay_ms                               0x08006260   Section        0  rn8302b.o(i.delay_ms)
    i.delay_us                               0x08006274   Section        0  ht1622x.o(i.delay_us)
    i.dispLCD_Loop                           0x08006280   Section        0  lcd_rt625181.o(i.dispLCD_Loop)
    i.dispMA1                                0x080063e4   Section        0  lcd_rt625181.o(i.dispMA1)
    i.dispMA2                                0x08006550   Section        0  lcd_rt625181.o(i.dispMA2)
    i.dispPassword                           0x080066a0   Section        0  lcd_rt625181.o(i.dispPassword)
    i.dispSystick                            0x0800679c   Section        0  lcd_rt625181.o(i.dispSystick)
    i.dispVol                                0x080067ac   Section        0  lcd_rt625181.o(i.dispVol)
    i.disp_Flag                              0x08006870   Section        0  lcd_rt625181.o(i.disp_Flag)
    i.disp_init                              0x080068ec   Section        0  lcd_rt625181.o(i.disp_init)
    i.fnDelay2us                             0x08006914   Section        0  rn8302b.o(i.fnDelay2us)
    i.fnRN8302_Init                          0x08006920   Section        0  rn8302b.o(i.fnRN8302_Init)
    i.fnRN8302_Read                          0x08006ba4   Section        0  rn8302b.o(i.fnRN8302_Read)
    fnRN8302_Read                            0x08006ba5   Thumb Code   290  rn8302b.o(i.fnRN8302_Read)
    i.fnRN8302_Write                         0x08006ccc   Section        0  rn8302b.o(i.fnRN8302_Write)
    fnRN8302_Write                           0x08006ccd   Thumb Code   272  rn8302b.o(i.fnRN8302_Write)
    i.fnSpi2_ReadByte                        0x08006ddc   Section        0  rn8302b.o(i.fnSpi2_ReadByte)
    fnSpi2_ReadByte                          0x08006ddd   Thumb Code   126  rn8302b.o(i.fnSpi2_ReadByte)
    i.fnSpi2_WriteByte                       0x08006e5a   Section        0  rn8302b.o(i.fnSpi2_WriteByte)
    fnSpi2_WriteByte                         0x08006e5b   Thumb Code   168  rn8302b.o(i.fnSpi2_WriteByte)
    i.ht1622_cs_out                          0x08006f02   Section        0  ht1622x.o(i.ht1622_cs_out)
    ht1622_cs_out                            0x08006f03   Thumb Code    22  ht1622x.o(i.ht1622_cs_out)
    i.ht1622_data_out                        0x08006f18   Section        0  ht1622x.o(i.ht1622_data_out)
    ht1622_data_out                          0x08006f19   Thumb Code    76  ht1622x.o(i.ht1622_data_out)
    i.ht1622_gpio_config                     0x08006f6c   Section        0  ht1622x.o(i.ht1622_gpio_config)
    ht1622_gpio_config                       0x08006f6d   Thumb Code   190  ht1622x.o(i.ht1622_gpio_config)
    i.ht1622_wr_out                          0x08007038   Section        0  ht1622x.o(i.ht1622_wr_out)
    ht1622_wr_out                            0x08007039   Thumb Code    18  ht1622x.o(i.ht1622_wr_out)
    i.ht1622x_display_all                    0x08007050   Section        0  ht1622x.o(i.ht1622x_display_all)
    i.ht1622x_init                           0x08007086   Section        0  ht1622x.o(i.ht1622x_init)
    i.ht1622x_send_bits                      0x080070a8   Section        0  ht1622x.o(i.ht1622x_send_bits)
    i.ht1622x_send_cmd                       0x080070e0   Section        0  ht1622x.o(i.ht1622x_send_cmd)
    i.ht1622x_send_data                      0x08007116   Section        0  ht1622x.o(i.ht1622x_send_data)
    i.m26_send                               0x0800714c   Section        0  m2g.o(i.m26_send)
    i.main                                   0x08007168   Section        0  main.o(i.main)
    i.touchBSP                               0x08007284   Section        0  touchkey.o(i.touchBSP)
    .constdata                               0x080072cc   Section     1832  tem_adc.o(.constdata)
    .constdata                               0x080079f4   Section       70  rn8302b.o(.constdata)
    .constdata                               0x08007a3a   Section       60  lcd_rt625181.o(.constdata)
    .constdata                               0x08007a76   Section       32  stm32f3xx_hal_rcc.o(.constdata)
    .constdata                               0x08007a96   Section       16  system_stm32f3xx.o(.constdata)
    .constdata                               0x08007aa6   Section        8  system_stm32f3xx.o(.constdata)
    .conststring                             0x08007ab0   Section        5  touchkey.o(.conststring)
    .data                                    0x20000000   Section      264  main.o(.data)
    .data                                    0x20000108   Section       56  system_config.o(.data)
    .data                                    0x20000140   Section       36  tem_adc.o(.data)
    index                                    0x20000154   Data           4  tem_adc.o(.data)
    .data                                    0x20000164   Section       12  rn8302b.o(.data)
    .data                                    0x20000170   Section        8  lcd_rt625181.o(.data)
    .data                                    0x20000178   Section       12  stm32f3xx_hal.o(.data)
    .data                                    0x20000184   Section        4  system_stm32f3xx.o(.data)
    .data                                    0x20000188   Section       24  m2g.o(.data)
    .data                                    0x200001a0   Section       60  touchkey.o(.data)
    key_last                                 0x200001ab   Data           1  touchkey.o(.data)
    timer                                    0x200001cc   Data           4  touchkey.o(.data)
    .data                                    0x200001dc   Section        4  errno.o(.data)
    _errno                                   0x200001dc   Data           4  errno.o(.data)
    .bss                                     0x200001e0   Section      340  main.o(.bss)
    .bss                                     0x20000334   Section       68  main.o(.bss)
    .bss                                     0x20000378   Section       68  main.o(.bss)
    .bss                                     0x200003bc   Section       68  main.o(.bss)
    .bss                                     0x20000400   Section      272  system_config.o(.bss)
    EraseInitStruct                          0x20000504   Data          12  system_config.o(.bss)
    .bss                                     0x20000510   Section     3400  tem_adc.o(.bss)
    .bss                                     0x20001258   Section     1980  rn8302b.o(.bss)
    .bss                                     0x20001a14   Section       50  lcd_rt625181.o(.bss)
    .bss                                     0x20001a48   Section       32  stm32f3xx_hal_flash.o(.bss)
    .bss                                     0x20001a68   Section       52  m2g.o(.bss)
    .bss                                     0x20001a9c   Section       22  touchkey.o(.bss)
    STACK                                    0x20001ab8   Section     1024  startup_stm32f302xc.o(STACK)

    Global Symbols

    Symbol Name                              Value     Ov Type        Size  Object(Section)

    BuildAttributes$$THM_ISAv4$E$P$D$K$B$S$7EM$VFPi3$EXTD16$VFPS$VFMA$PE$A:L22UL41UL21$X:L11$S22US41US21$IEEE1$IW$USESV6$~STKCKD$USESV7$~SHL$OTIME$ROPI$IEEEJ$EBA8$MICROLIB$REQ8$PRES8$EABIv2 0x00000000   Number         0  anon$$obj.o ABSOLUTE
    __ARM_use_no_argv                        0x00000000   Number         0  main.o ABSOLUTE
    _printf_a                                0x00000000   Number         0  stubs.o ABSOLUTE
    _printf_c                                0x00000000   Number         0  stubs.o ABSOLUTE
    _printf_charcount                        0x00000000   Number         0  stubs.o ABSOLUTE
    _printf_d                                0x00000000   Number         0  stubs.o ABSOLUTE
    _printf_e                                0x00000000   Number         0  stubs.o ABSOLUTE
    _printf_f                                0x00000000   Number         0  stubs.o ABSOLUTE
    _printf_flags                            0x00000000   Number         0  stubs.o ABSOLUTE
    _printf_fp_dec                           0x00000000   Number         0  stubs.o ABSOLUTE
    _printf_fp_hex                           0x00000000   Number         0  stubs.o ABSOLUTE
    _printf_g                                0x00000000   Number         0  stubs.o ABSOLUTE
    _printf_i                                0x00000000   Number         0  stubs.o ABSOLUTE
    _printf_int_dec                          0x00000000   Number         0  stubs.o ABSOLUTE
    _printf_l                                0x00000000   Number         0  stubs.o ABSOLUTE
    _printf_lc                               0x00000000   Number         0  stubs.o ABSOLUTE
    _printf_ll                               0x00000000   Number         0  stubs.o ABSOLUTE
    _printf_lld                              0x00000000   Number         0  stubs.o ABSOLUTE
    _printf_lli                              0x00000000   Number         0  stubs.o ABSOLUTE
    _printf_llo                              0x00000000   Number         0  stubs.o ABSOLUTE
    _printf_llu                              0x00000000   Number         0  stubs.o ABSOLUTE
    _printf_llx                              0x00000000   Number         0  stubs.o ABSOLUTE
    _printf_longlong_dec                     0x00000000   Number         0  stubs.o ABSOLUTE
    _printf_longlong_hex                     0x00000000   Number         0  stubs.o ABSOLUTE
    _printf_longlong_oct                     0x00000000   Number         0  stubs.o ABSOLUTE
    _printf_ls                               0x00000000   Number         0  stubs.o ABSOLUTE
    _printf_mbtowc                           0x00000000   Number         0  stubs.o ABSOLUTE
    _printf_n                                0x00000000   Number         0  stubs.o ABSOLUTE
    _printf_o                                0x00000000   Number         0  stubs.o ABSOLUTE
    _printf_p                                0x00000000   Number         0  stubs.o ABSOLUTE
    _printf_percent                          0x00000000   Number         0  stubs.o ABSOLUTE
    _printf_pre_padding                      0x00000000   Number         0  stubs.o ABSOLUTE
    _printf_return_value                     0x00000000   Number         0  stubs.o ABSOLUTE
    _printf_s                                0x00000000   Number         0  stubs.o ABSOLUTE
    _printf_sizespec                         0x00000000   Number         0  stubs.o ABSOLUTE
    _printf_str                              0x00000000   Number         0  stubs.o ABSOLUTE
    _printf_truncate_signed                  0x00000000   Number         0  stubs.o ABSOLUTE
    _printf_truncate_unsigned                0x00000000   Number         0  stubs.o ABSOLUTE
    _printf_u                                0x00000000   Number         0  stubs.o ABSOLUTE
    _printf_wc                               0x00000000   Number         0  stubs.o ABSOLUTE
    _printf_wctomb                           0x00000000   Number         0  stubs.o ABSOLUTE
    _printf_widthprec                        0x00000000   Number         0  stubs.o ABSOLUTE
    _printf_x                                0x00000000   Number         0  stubs.o ABSOLUTE
    __cpp_initialize__aeabi_                  - Undefined Weak Reference
    __cxa_finalize                            - Undefined Weak Reference
    _clock_init                               - Undefined Weak Reference
    _microlib_exit                            - Undefined Weak Reference
    __Vectors_Size                           0x00000188   Number         0  startup_stm32f302xc.o ABSOLUTE
    __Vectors                                0x08000000   Data           4  startup_stm32f302xc.o(RESET)
    __Vectors_End                            0x08000188   Data           0  startup_stm32f302xc.o(RESET)
    __main                                   0x08000189   Thumb Code     0  entry.o(.ARM.Collect$$$$00000000)
    _main_stk                                0x08000189   Thumb Code     0  entry2.o(.ARM.Collect$$$$00000001)
    _main_scatterload                        0x0800018d   Thumb Code     0  entry5.o(.ARM.Collect$$$$00000004)
    __main_after_scatterload                 0x08000191   Thumb Code     0  entry5.o(.ARM.Collect$$$$00000004)
    _main_clock                              0x08000191   Thumb Code     0  entry7b.o(.ARM.Collect$$$$00000008)
    _main_cpp_init                           0x08000191   Thumb Code     0  entry8b.o(.ARM.Collect$$$$0000000A)
    _main_init                               0x08000191   Thumb Code     0  entry9a.o(.ARM.Collect$$$$0000000B)
    __rt_final_cpp                           0x08000199   Thumb Code     0  entry10a.o(.ARM.Collect$$$$0000000D)
    __rt_final_exit                          0x08000199   Thumb Code     0  entry11a.o(.ARM.Collect$$$$0000000F)
    Reset_Handler                            0x0800019d   Thumb Code     8  startup_stm32f302xc.o(.text)
    CAN_RX1_IRQHandler                       0x080001b7   Thumb Code     0  startup_stm32f302xc.o(.text)
    CAN_SCE_IRQHandler                       0x080001b7   Thumb Code     0  startup_stm32f302xc.o(.text)
    COMP1_2_IRQHandler                       0x080001b7   Thumb Code     0  startup_stm32f302xc.o(.text)
    COMP4_6_IRQHandler                       0x080001b7   Thumb Code     0  startup_stm32f302xc.o(.text)
    DMA1_Channel4_IRQHandler                 0x080001b7   Thumb Code     0  startup_stm32f302xc.o(.text)
    DMA1_Channel5_IRQHandler                 0x080001b7   Thumb Code     0  startup_stm32f302xc.o(.text)
    DMA1_Channel6_IRQHandler                 0x080001b7   Thumb Code     0  startup_stm32f302xc.o(.text)
    DMA1_Channel7_IRQHandler                 0x080001b7   Thumb Code     0  startup_stm32f302xc.o(.text)
    DMA2_Channel1_IRQHandler                 0x080001b7   Thumb Code     0  startup_stm32f302xc.o(.text)
    DMA2_Channel2_IRQHandler                 0x080001b7   Thumb Code     0  startup_stm32f302xc.o(.text)
    DMA2_Channel3_IRQHandler                 0x080001b7   Thumb Code     0  startup_stm32f302xc.o(.text)
    DMA2_Channel4_IRQHandler                 0x080001b7   Thumb Code     0  startup_stm32f302xc.o(.text)
    DMA2_Channel5_IRQHandler                 0x080001b7   Thumb Code     0  startup_stm32f302xc.o(.text)
    EXTI0_IRQHandler                         0x080001b7   Thumb Code     0  startup_stm32f302xc.o(.text)
    EXTI15_10_IRQHandler                     0x080001b7   Thumb Code     0  startup_stm32f302xc.o(.text)
    EXTI1_IRQHandler                         0x080001b7   Thumb Code     0  startup_stm32f302xc.o(.text)
    EXTI2_TSC_IRQHandler                     0x080001b7   Thumb Code     0  startup_stm32f302xc.o(.text)
    EXTI3_IRQHandler                         0x080001b7   Thumb Code     0  startup_stm32f302xc.o(.text)
    EXTI4_IRQHandler                         0x080001b7   Thumb Code     0  startup_stm32f302xc.o(.text)
    EXTI9_5_IRQHandler                       0x080001b7   Thumb Code     0  startup_stm32f302xc.o(.text)
    FLASH_IRQHandler                         0x080001b7   Thumb Code     0  startup_stm32f302xc.o(.text)
    FPU_IRQHandler                           0x080001b7   Thumb Code     0  startup_stm32f302xc.o(.text)
    I2C1_ER_IRQHandler                       0x080001b7   Thumb Code     0  startup_stm32f302xc.o(.text)
    I2C1_EV_IRQHandler                       0x080001b7   Thumb Code     0  startup_stm32f302xc.o(.text)
    I2C2_ER_IRQHandler                       0x080001b7   Thumb Code     0  startup_stm32f302xc.o(.text)
    I2C2_EV_IRQHandler                       0x080001b7   Thumb Code     0  startup_stm32f302xc.o(.text)
    PVD_IRQHandler                           0x080001b7   Thumb Code     0  startup_stm32f302xc.o(.text)
    RCC_IRQHandler                           0x080001b7   Thumb Code     0  startup_stm32f302xc.o(.text)
    RTC_Alarm_IRQHandler                     0x080001b7   Thumb Code     0  startup_stm32f302xc.o(.text)
    RTC_WKUP_IRQHandler                      0x080001b7   Thumb Code     0  startup_stm32f302xc.o(.text)
    SPI1_IRQHandler                          0x080001b7   Thumb Code     0  startup_stm32f302xc.o(.text)
    SPI2_IRQHandler                          0x080001b7   Thumb Code     0  startup_stm32f302xc.o(.text)
    SPI3_IRQHandler                          0x080001b7   Thumb Code     0  startup_stm32f302xc.o(.text)
    TAMP_STAMP_IRQHandler                    0x080001b7   Thumb Code     0  startup_stm32f302xc.o(.text)
    TIM1_BRK_TIM15_IRQHandler                0x080001b7   Thumb Code     0  startup_stm32f302xc.o(.text)
    TIM1_CC_IRQHandler                       0x080001b7   Thumb Code     0  startup_stm32f302xc.o(.text)
    TIM1_TRG_COM_TIM17_IRQHandler            0x080001b7   Thumb Code     0  startup_stm32f302xc.o(.text)
    TIM3_IRQHandler                          0x080001b7   Thumb Code     0  startup_stm32f302xc.o(.text)
    TIM4_IRQHandler                          0x080001b7   Thumb Code     0  startup_stm32f302xc.o(.text)
    TIM6_DAC_IRQHandler                      0x080001b7   Thumb Code     0  startup_stm32f302xc.o(.text)
    UART4_IRQHandler                         0x080001b7   Thumb Code     0  startup_stm32f302xc.o(.text)
    UART5_IRQHandler                         0x080001b7   Thumb Code     0  startup_stm32f302xc.o(.text)
    USART1_IRQHandler                        0x080001b7   Thumb Code     0  startup_stm32f302xc.o(.text)
    USART2_IRQHandler                        0x080001b7   Thumb Code     0  startup_stm32f302xc.o(.text)
    USBWakeUp_IRQHandler                     0x080001b7   Thumb Code     0  startup_stm32f302xc.o(.text)
    USBWakeUp_RMP_IRQHandler                 0x080001b7   Thumb Code     0  startup_stm32f302xc.o(.text)
    USB_HP_CAN_TX_IRQHandler                 0x080001b7   Thumb Code     0  startup_stm32f302xc.o(.text)
    USB_HP_IRQHandler                        0x080001b7   Thumb Code     0  startup_stm32f302xc.o(.text)
    USB_LP_CAN_RX0_IRQHandler                0x080001b7   Thumb Code     0  startup_stm32f302xc.o(.text)
    USB_LP_IRQHandler                        0x080001b7   Thumb Code     0  startup_stm32f302xc.o(.text)
    WWDG_IRQHandler                          0x080001b7   Thumb Code     0  startup_stm32f302xc.o(.text)
    __aeabi_llsr                             0x080001c1   Thumb Code    32  llushr.o(.text)
    _ll_ushift_r                             0x080001c1   Thumb Code     0  llushr.o(.text)
    __aeabi_memset                           0x080001e1   Thumb Code    14  memseta.o(.text)
    __aeabi_memset4                          0x080001e1   Thumb Code     0  memseta.o(.text)
    __aeabi_memset8                          0x080001e1   Thumb Code     0  memseta.o(.text)
    __aeabi_memclr                           0x080001ef   Thumb Code     4  memseta.o(.text)
    __aeabi_memclr4                          0x080001ef   Thumb Code     0  memseta.o(.text)
    __aeabi_memclr8                          0x080001ef   Thumb Code     0  memseta.o(.text)
    _memset$wrapper                          0x080001f3   Thumb Code    18  memseta.o(.text)
    strlen                                   0x08000205   Thumb Code    14  strlen.o(.text)
    __aeabi_dadd                             0x08000213   Thumb Code   322  dadd.o(.text)
    __aeabi_dsub                             0x08000355   Thumb Code     6  dadd.o(.text)
    __aeabi_drsub                            0x0800035b   Thumb Code     6  dadd.o(.text)
    __aeabi_dmul                             0x08000361   Thumb Code   228  dmul.o(.text)
    __aeabi_ddiv                             0x08000445   Thumb Code   222  ddiv.o(.text)
    __aeabi_i2d                              0x08000523   Thumb Code    34  dflti.o(.text)
    __aeabi_ui2d                             0x08000545   Thumb Code    26  dfltui.o(.text)
    __aeabi_f2d                              0x0800055f   Thumb Code    38  f2d.o(.text)
    __aeabi_d2f                              0x08000585   Thumb Code    56  d2f.o(.text)
    __aeabi_uidiv                            0x080005bd   Thumb Code     0  uidiv.o(.text)
    __aeabi_uidivmod                         0x080005bd   Thumb Code    44  uidiv.o(.text)
    __aeabi_uldivmod                         0x080005e9   Thumb Code    98  uldiv.o(.text)
    __aeabi_llsl                             0x0800064b   Thumb Code    30  llshl.o(.text)
    _ll_shift_l                              0x0800064b   Thumb Code     0  llshl.o(.text)
    __aeabi_lasr                             0x08000669   Thumb Code    36  llsshr.o(.text)
    _ll_sshift_r                             0x08000669   Thumb Code     0  llsshr.o(.text)
    __I$use$fp                               0x0800068d   Thumb Code     0  iusefp.o(.text)
    _float_round                             0x0800068d   Thumb Code    18  fepilogue.o(.text)
    _float_epilogue                          0x0800069f   Thumb Code    92  fepilogue.o(.text)
    _double_round                            0x080006fb   Thumb Code    30  depilogue.o(.text)
    _double_epilogue                         0x08000719   Thumb Code   156  depilogue.o(.text)
    _dsqrt                                   0x080007b5   Thumb Code   162  dsqrt.o(.text)
    __aeabi_d2ulz                            0x08000857   Thumb Code    48  dfixul.o(.text)
    __aeabi_cdrcmple                         0x08000889   Thumb Code    48  cdrcmple.o(.text)
    __scatterload                            0x080008b9   Thumb Code    28  init.o(.text)
    __scatterload_rt2                        0x080008b9   Thumb Code     0  init.o(.text)
    __decompress                             0x080008dd   Thumb Code     0  __dczerorl.o(.text)
    __decompress0                            0x080008dd   Thumb Code    58  __dczerorl.o(.text)
    ADC1_2_IRQHandler                        0x08000919   Thumb Code     6  stm32f3xx_it.o(i.ADC1_2_IRQHandler)
    Beep_Init                                0x08000a45   Thumb Code    70  system_config.o(i.Beep_Init)
    Beep_Onoff                               0x08000a91   Thumb Code    20  system_config.o(i.Beep_Onoff)
    BusFault_Handler                         0x08000aa5   Thumb Code     2  stm32f3xx_it.o(i.BusFault_Handler)
    DMA1_Channel1_IRQHandler                 0x08000aa9   Thumb Code     6  stm32f3xx_it.o(i.DMA1_Channel1_IRQHandler)
    DMA1_Channel2_IRQHandler                 0x08000ab5   Thumb Code     6  stm32f3xx_it.o(i.DMA1_Channel2_IRQHandler)
    DMA1_Channel3_IRQHandler                 0x08000ac1   Thumb Code     6  stm32f3xx_it.o(i.DMA1_Channel3_IRQHandler)
    DebugMon_Handler                         0x08000b33   Thumb Code     2  stm32f3xx_it.o(i.DebugMon_Handler)
    Delay1us                                 0x08000b35   Thumb Code    12  rn8302b.o(i.Delay1us)
    Delay2us                                 0x08000b41   Thumb Code    12  main.o(i.Delay2us)
    Delay5ms                                 0x08000b4d   Thumb Code    26  rn8302b.o(i.Delay5ms)
    Delay_10ms                               0x08000b67   Thumb Code    28  main.o(i.Delay_10ms)
    Delay_ms                                 0x08000b83   Thumb Code    28  rn8302b.o(i.Delay_ms)
    Disp_ABC                                 0x08000ba1   Thumb Code   144  lcd_rt625181.o(i.Disp_ABC)
    Disp_Number1                             0x08000c35   Thumb Code   248  lcd_rt625181.o(i.Disp_Number1)
    Disp_Number2                             0x08000d39   Thumb Code   228  lcd_rt625181.o(i.Disp_Number2)
    Disp_Number3                             0x08000e29   Thumb Code   254  lcd_rt625181.o(i.Disp_Number3)
    Disp_Number4                             0x08000f35   Thumb Code   244  lcd_rt625181.o(i.Disp_Number4)
    Disp_Number5                             0x08001035   Thumb Code   232  lcd_rt625181.o(i.Disp_Number5)
    Disp_Ram                                 0x08001129   Thumb Code    22  lcd_rt625181.o(i.Disp_Ram)
    Disp_Sig                                 0x08001141   Thumb Code   168  lcd_rt625181.o(i.Disp_Sig)
    Disp_Temper                              0x080011ed   Thumb Code   172  lcd_rt625181.o(i.Disp_Temper)
    EleHandle_Loop                           0x080012a1   Thumb Code   154  tem_adc.o(i.EleHandle_Loop)
    Error_Handler                            0x08001365   Thumb Code     2  main.o(i.Error_Handler)
    FLASH_PageErase                          0x0800138d   Thumb Code    28  stm32f3xx_hal_flash_ex.o(i.FLASH_PageErase)
    FLASH_WaitForLastOperation               0x080013e5   Thumb Code    74  stm32f3xx_hal_flash.o(i.FLASH_WaitForLastOperation)
    HAL_ADCEx_Calibration_Start              0x08001709   Thumb Code   148  stm32f3xx_hal_adc_ex.o(i.HAL_ADCEx_Calibration_Start)
    HAL_ADCEx_InjectedConvCpltCallback       0x0800179d   Thumb Code     2  stm32f3xx_hal_adc_ex.o(i.HAL_ADCEx_InjectedConvCpltCallback)
    HAL_ADCEx_InjectedQueueOverflowCallback  0x0800179f   Thumb Code     2  stm32f3xx_hal_adc_ex.o(i.HAL_ADCEx_InjectedQueueOverflowCallback)
    HAL_ADCEx_LevelOutOfWindow2Callback      0x080017a1   Thumb Code     2  stm32f3xx_hal_adc_ex.o(i.HAL_ADCEx_LevelOutOfWindow2Callback)
    HAL_ADCEx_LevelOutOfWindow3Callback      0x080017a3   Thumb Code     2  stm32f3xx_hal_adc_ex.o(i.HAL_ADCEx_LevelOutOfWindow3Callback)
    HAL_ADCEx_MultiModeConfigChannel         0x080017a5   Thumb Code   212  stm32f3xx_hal_adc_ex.o(i.HAL_ADCEx_MultiModeConfigChannel)
    HAL_ADC_ConfigChannel                    0x08001881   Thumb Code   822  stm32f3xx_hal_adc_ex.o(i.HAL_ADC_ConfigChannel)
    HAL_ADC_ConvCpltCallback                 0x08001bcd   Thumb Code     2  stm32f3xx_hal_adc.o(i.HAL_ADC_ConvCpltCallback)
    HAL_ADC_ConvHalfCpltCallback             0x08001bcf   Thumb Code     2  stm32f3xx_hal_adc.o(i.HAL_ADC_ConvHalfCpltCallback)
    HAL_ADC_ErrorCallback                    0x08001bd1   Thumb Code     2  stm32f3xx_hal_adc.o(i.HAL_ADC_ErrorCallback)
    HAL_ADC_IRQHandler                       0x08001bd5   Thumb Code   612  stm32f3xx_hal_adc_ex.o(i.HAL_ADC_IRQHandler)
    HAL_ADC_Init                             0x08001e3d   Thumb Code   456  stm32f3xx_hal_adc_ex.o(i.HAL_ADC_Init)
    HAL_ADC_LevelOutOfWindowCallback         0x0800201d   Thumb Code     2  stm32f3xx_hal_adc.o(i.HAL_ADC_LevelOutOfWindowCallback)
    HAL_ADC_MspInit                          0x08002021   Thumb Code   170  stm32f3xx_hal_msp.o(i.HAL_ADC_MspInit)
    HAL_ADC_Start_DMA                        0x080020dd   Thumb Code   246  stm32f3xx_hal_adc_ex.o(i.HAL_ADC_Start_DMA)
    HAL_DMA_Abort                            0x080021e5   Thumb Code    48  stm32f3xx_hal_dma.o(i.HAL_DMA_Abort)
    HAL_DMA_Abort_IT                         0x08002215   Thumb Code    74  stm32f3xx_hal_dma.o(i.HAL_DMA_Abort_IT)
    HAL_DMA_IRQHandler                       0x0800225f   Thumb Code   170  stm32f3xx_hal_dma.o(i.HAL_DMA_IRQHandler)
    HAL_DMA_Init                             0x08002309   Thumb Code    78  stm32f3xx_hal_dma.o(i.HAL_DMA_Init)
    HAL_DMA_Start_IT                         0x08002357   Thumb Code   112  stm32f3xx_hal_dma.o(i.HAL_DMA_Start_IT)
    HAL_Delay                                0x080023c9   Thumb Code    32  stm32f3xx_hal.o(i.HAL_Delay)
    HAL_FLASHEx_Erase                        0x080023ed   Thumb Code   158  stm32f3xx_hal_flash_ex.o(i.HAL_FLASHEx_Erase)
    HAL_FLASH_Unlock                         0x08002495   Thumb Code    28  stm32f3xx_hal_flash.o(i.HAL_FLASH_Unlock)
    HAL_GPIO_Init                            0x080024bd   Thumb Code   370  stm32f3xx_hal_gpio.o(i.HAL_GPIO_Init)
    HAL_GPIO_ReadPin                         0x0800264d   Thumb Code    10  stm32f3xx_hal_gpio.o(i.HAL_GPIO_ReadPin)
    HAL_GPIO_WritePin                        0x08002657   Thumb Code    10  stm32f3xx_hal_gpio.o(i.HAL_GPIO_WritePin)
    HAL_GetTick                              0x08002661   Thumb Code     6  stm32f3xx_hal.o(i.HAL_GetTick)
    HAL_IWDG_Init                            0x0800266d   Thumb Code    92  stm32f3xx_hal_iwdg.o(i.HAL_IWDG_Init)
    HAL_IWDG_Refresh                         0x080026c9   Thumb Code    12  stm32f3xx_hal_iwdg.o(i.HAL_IWDG_Refresh)
    HAL_IncTick                              0x080026d5   Thumb Code    12  stm32f3xx_hal.o(i.HAL_IncTick)
    HAL_Init                                 0x080026e5   Thumb Code    32  stm32f3xx_hal.o(i.HAL_Init)
    HAL_InitTick                             0x08002709   Thumb Code    54  stm32f3xx_hal.o(i.HAL_InitTick)
    HAL_MspInit                              0x08002749   Thumb Code    38  stm32f3xx_hal_msp.o(i.HAL_MspInit)
    HAL_NVIC_DisableIRQ                      0x08002775   Thumb Code    22  stm32f3xx_hal_cortex.o(i.HAL_NVIC_DisableIRQ)
    HAL_NVIC_EnableIRQ                       0x0800278b   Thumb Code    22  stm32f3xx_hal_cortex.o(i.HAL_NVIC_EnableIRQ)
    HAL_NVIC_SetPriority                     0x080027a1   Thumb Code    60  stm32f3xx_hal_cortex.o(i.HAL_NVIC_SetPriority)
    HAL_NVIC_SetPriorityGrouping             0x080027e1   Thumb Code    26  stm32f3xx_hal_cortex.o(i.HAL_NVIC_SetPriorityGrouping)
    HAL_RCCEx_PeriphCLKConfig                0x08002805   Thumb Code   486  stm32f3xx_hal_rcc_ex.o(i.HAL_RCCEx_PeriphCLKConfig)
    HAL_RCC_ClockConfig                      0x080029f9   Thumb Code   314  stm32f3xx_hal_rcc.o(i.HAL_RCC_ClockConfig)
    HAL_RCC_GetPCLK1Freq                     0x08002b45   Thumb Code    34  stm32f3xx_hal_rcc.o(i.HAL_RCC_GetPCLK1Freq)
    HAL_RCC_GetPCLK2Freq                     0x08002b75   Thumb Code    34  stm32f3xx_hal_rcc.o(i.HAL_RCC_GetPCLK2Freq)
    HAL_RCC_GetSysClockFreq                  0x08002ba5   Thumb Code    84  stm32f3xx_hal_rcc.o(i.HAL_RCC_GetSysClockFreq)
    HAL_RCC_OscConfig                        0x08002c09   Thumb Code  1444  stm32f3xx_hal_rcc.o(i.HAL_RCC_OscConfig)
    HAL_SYSTICK_Config                       0x080031ad   Thumb Code    40  stm32f3xx_hal_cortex.o(i.HAL_SYSTICK_Config)
    HAL_TIMEx_Break2Callback                 0x080031d5   Thumb Code     2  stm32f3xx_hal_tim_ex.o(i.HAL_TIMEx_Break2Callback)
    HAL_TIMEx_BreakCallback                  0x080031d7   Thumb Code     2  stm32f3xx_hal_tim_ex.o(i.HAL_TIMEx_BreakCallback)
    HAL_TIMEx_CommutationCallback            0x080031d9   Thumb Code     2  stm32f3xx_hal_tim_ex.o(i.HAL_TIMEx_CommutationCallback)
    HAL_TIMEx_MasterConfigSynchronization    0x080031dd   Thumb Code    72  stm32f3xx_hal_tim_ex.o(i.HAL_TIMEx_MasterConfigSynchronization)
    HAL_TIM_Base_Init                        0x08003229   Thumb Code    54  stm32f3xx_hal_tim.o(i.HAL_TIM_Base_Init)
    HAL_TIM_Base_MspInit                     0x08003261   Thumb Code    86  stm32f3xx_hal_msp.o(i.HAL_TIM_Base_MspInit)
    HAL_TIM_Base_Start_IT                    0x080032c1   Thumb Code    24  stm32f3xx_hal_tim.o(i.HAL_TIM_Base_Start_IT)
    HAL_TIM_Base_Stop_IT                     0x080032d9   Thumb Code    42  stm32f3xx_hal_tim.o(i.HAL_TIM_Base_Stop_IT)
    HAL_TIM_ConfigClockSource                0x08003305   Thumb Code   244  stm32f3xx_hal_tim.o(i.HAL_TIM_ConfigClockSource)
    HAL_TIM_IC_CaptureCallback               0x080033fd   Thumb Code     2  stm32f3xx_hal_tim.o(i.HAL_TIM_IC_CaptureCallback)
    HAL_TIM_IRQHandler                       0x080033ff   Thumb Code   388  stm32f3xx_hal_tim.o(i.HAL_TIM_IRQHandler)
    HAL_TIM_OC_DelayElapsedCallback          0x08003583   Thumb Code     2  stm32f3xx_hal_tim.o(i.HAL_TIM_OC_DelayElapsedCallback)
    HAL_TIM_PWM_PulseFinishedCallback        0x08003585   Thumb Code     2  stm32f3xx_hal_tim.o(i.HAL_TIM_PWM_PulseFinishedCallback)
    HAL_TIM_PeriodElapsedCallback            0x08003589   Thumb Code   104  tem_adc.o(i.HAL_TIM_PeriodElapsedCallback)
    HAL_TIM_TriggerCallback                  0x0800360d   Thumb Code     2  stm32f3xx_hal_tim.o(i.HAL_TIM_TriggerCallback)
    HAL_UARTEx_WakeupCallback                0x0800360f   Thumb Code     2  stm32f3xx_hal_uart_ex.o(i.HAL_UARTEx_WakeupCallback)
    HAL_UART_DMAStop                         0x08003611   Thumb Code    84  stm32f3xx_hal_uart.o(i.HAL_UART_DMAStop)
    HAL_UART_ErrorCallback                   0x08003665   Thumb Code     2  stm32f3xx_hal_uart.o(i.HAL_UART_ErrorCallback)
    HAL_UART_IRQHandler                      0x08003669   Thumb Code   316  stm32f3xx_hal_uart.o(i.HAL_UART_IRQHandler)
    HAL_UART_Init                            0x080037a9   Thumb Code   106  stm32f3xx_hal_uart.o(i.HAL_UART_Init)
    HAL_UART_MspInit                         0x08003815   Thumb Code   214  stm32f3xx_hal_msp.o(i.HAL_UART_MspInit)
    HAL_UART_Receive_DMA                     0x08003905   Thumb Code   134  stm32f3xx_hal_uart.o(i.HAL_UART_Receive_DMA)
    HAL_UART_RxCpltCallback                  0x08003999   Thumb Code    18  main.o(i.HAL_UART_RxCpltCallback)
    HAL_UART_RxHalfCpltCallback              0x080039b5   Thumb Code     2  stm32f3xx_hal_uart.o(i.HAL_UART_RxHalfCpltCallback)
    HAL_UART_Transmit_DMA                    0x080039b9   Thumb Code   122  stm32f3xx_hal_uart.o(i.HAL_UART_Transmit_DMA)
    HAL_UART_TxCpltCallback                  0x08003a41   Thumb Code     2  stm32f3xx_hal_uart.o(i.HAL_UART_TxCpltCallback)
    HAL_UART_TxHalfCpltCallback              0x08003a43   Thumb Code     2  stm32f3xx_hal_uart.o(i.HAL_UART_TxHalfCpltCallback)
    HAL_USART_User                           0x08003a45   Thumb Code   130  m2g.o(i.HAL_USART_User)
    HardFault_Handler                        0x08003ae1   Thumb Code     2  stm32f3xx_it.o(i.HardFault_Handler)
    Key_ClearEvent                           0x08003ae5   Thumb Code     8  touchkey.o(i.Key_ClearEvent)
    Key_GetEvent                             0x08003af1   Thumb Code    56  touchkey.o(i.Key_GetEvent)
    Key_HandleByUser                         0x08003b31   Thumb Code   348  system_config.o(i.Key_HandleByUser)
    Key_Loop                                 0x08003c99   Thumb Code   128  touchkey.o(i.Key_Loop)
    Key_PeriodHandle                         0x08003d1d   Thumb Code    30  touchkey.o(i.Key_PeriodHandle)
    Key_Press                                0x08003d41   Thumb Code    48  touchkey.o(i.Key_Press)
    Key_ReadFactory                          0x08003d79   Thumb Code    46  touchkey.o(i.Key_ReadFactory)
    Key_VirtualInit                          0x08003dad   Thumb Code    34  touchkey.o(i.Key_VirtualInit)
    LCD_PowerOn                              0x08003dd9   Thumb Code    66  lcd_rt625181.o(i.LCD_PowerOn)
    M26_PowerOn                              0x08003e25   Thumb Code   112  main.o(i.M26_PowerOn)
    MX_IWDG_Init1                            0x08003f59   Thumb Code    22  main.o(i.MX_IWDG_Init1)
    MemManage_Handler                        0x0800407d   Thumb Code     2  stm32f3xx_it.o(i.MemManage_Handler)
    Mode_adjust                              0x08004081   Thumb Code    24  system_config.o(i.Mode_adjust)
    NMI_Handler                              0x0800409d   Thumb Code     2  stm32f3xx_it.o(i.NMI_Handler)
    PendSV_Handler                           0x080040bf   Thumb Code     2  stm32f3xx_it.o(i.PendSV_Handler)
    Query_Init                               0x080040c1   Thumb Code     6  m2g.o(i.Query_Init)
    RN8302B_CalibConfig                      0x080040dd   Thumb Code    42  rn8302b.o(i.RN8302B_CalibConfig)
    RN8302B_DCOffset                         0x08004109   Thumb Code    68  rn8302b.o(i.RN8302B_DCOffset)
    RN8302_CalibrateCurrentOffset            0x08004151   Thumb Code   184  rn8302b.o(i.RN8302_CalibrateCurrentOffset)
    RN8302_CalibrateIGain                    0x08004211   Thumb Code   236  rn8302b.o(i.RN8302_CalibrateIGain)
    RN8302_CalibrateInit                     0x08004319   Thumb Code   692  rn8302b.o(i.RN8302_CalibrateInit)
    RN8302_CalibrateUGain                    0x080045d5   Thumb Code   278  rn8302b.o(i.RN8302_CalibrateUGain)
    RN830B_SoftInit                          0x0800470d   Thumb Code   238  rn8302b.o(i.RN830B_SoftInit)
    ReadAvol                                 0x08004809   Thumb Code   536  rn8302b.o(i.ReadAvol)
    SVC_Handler                              0x08004a65   Thumb Code     2  stm32f3xx_it.o(i.SVC_Handler)
    Switch_Alm                               0x08004a69   Thumb Code    18  system_config.o(i.Switch_Alm)
    Switch_Init                              0x08004a81   Thumb Code    78  system_config.o(i.Switch_Init)
    SysTem_SaveFileInit                      0x08004ad9   Thumb Code    30  system_config.o(i.SysTem_SaveFileInit)
    SysTick_Handler                          0x08004b01   Thumb Code     4  stm32f3xx_it.o(i.SysTick_Handler)
    SystemClock_Config                       0x08004b05   Thumb Code   110  main.o(i.SystemClock_Config)
    SystemInit                               0x08004b75   Thumb Code    82  system_stm32f3xx.o(i.SystemInit)
    System_Config                            0x08004bdd   Thumb Code    56  system_config.o(i.System_Config)
    System_EnterMode                         0x08004c19   Thumb Code   166  system_config.o(i.System_EnterMode)
    System_Led_Init                          0x08004cc9   Thumb Code   112  system_config.o(i.System_Led_Init)
    System_Led_Onoff                         0x08004d3d   Thumb Code    48  system_config.o(i.System_Led_Onoff)
    System_TimerPeriod                       0x08004d6d   Thumb Code   208  system_config.o(i.System_TimerPeriod)
    System_TimerUpdate                       0x08004e45   Thumb Code   342  system_config.o(i.System_TimerUpdate)
    TIM1_UP_TIM16_IRQHandler                 0x08004fb1   Thumb Code    28  stm32f3xx_it.o(i.TIM1_UP_TIM16_IRQHandler)
    TIM2_IRQHandler                          0x08004fd5   Thumb Code     6  stm32f3xx_it.o(i.TIM2_IRQHandler)
    TIM_Base_SetConfig                       0x08004fe1   Thumb Code   126  stm32f3xx_hal_tim.o(i.TIM_Base_SetConfig)
    TIM_ETR_SetConfig                        0x08005079   Thumb Code    20  stm32f3xx_hal_tim.o(i.TIM_ETR_SetConfig)
    Tem_AdcInit                              0x080050e5   Thumb Code    34  tem_adc.o(i.Tem_AdcInit)
    Tem_AdcLoop                              0x08005119   Thumb Code    98  tem_adc.o(i.Tem_AdcLoop)
    Tem_Gettemplate                          0x08005189   Thumb Code   104  tem_adc.o(i.Tem_Gettemplate)
    UART_AdvFeatureConfig                    0x08005205   Thumb Code   200  stm32f3xx_hal_uart.o(i.UART_AdvFeatureConfig)
    UART_CheckIdleState                      0x080052cd   Thumb Code    92  stm32f3xx_hal_uart.o(i.UART_CheckIdleState)
    UART_EndTransmit_IT                      0x08005425   Thumb Code    26  stm32f3xx_hal_uart.o(i.UART_EndTransmit_IT)
    UART_Receive_IT                          0x08005451   Thumb Code   118  stm32f3xx_hal_uart.o(i.UART_Receive_IT)
    UART_SetConfig                           0x080054c9   Thumb Code   434  stm32f3xx_hal_uart.o(i.UART_SetConfig)
    UART_Transmit_IT                         0x0800569d   Thumb Code    98  stm32f3xx_hal_uart.o(i.UART_Transmit_IT)
    UART_WaitOnFlagUntilTimeout              0x080056ff   Thumb Code    98  stm32f3xx_hal_uart.o(i.UART_WaitOnFlagUntilTimeout)
    USART3_IRQHandler                        0x08005761   Thumb Code    16  stm32f3xx_it.o(i.USART3_IRQHandler)
    UsageFault_Handler                       0x08005775   Thumb Code     2  stm32f3xx_it.o(i.UsageFault_Handler)
    Watch_Loop                               0x08005779   Thumb Code   340  system_config.o(i.Watch_Loop)
    __0sprintf                               0x080058d9   Thumb Code    34  printfa.o(i.__0sprintf)
    __1sprintf                               0x080058d9   Thumb Code     0  printfa.o(i.__0sprintf)
    __2sprintf                               0x080058d9   Thumb Code     0  printfa.o(i.__0sprintf)
    __c89sprintf                             0x080058d9   Thumb Code     0  printfa.o(i.__0sprintf)
    sprintf                                  0x080058d9   Thumb Code     0  printfa.o(i.__0sprintf)
    __hardfp_sqrt                            0x08005901   Thumb Code   122  sqrt.o(i.__hardfp_sqrt)
    __scatterload_copy                       0x0800597b   Thumb Code    14  handlers.o(i.__scatterload_copy)
    __scatterload_null                       0x08005989   Thumb Code     2  handlers.o(i.__scatterload_null)
    __scatterload_zeroinit                   0x0800598b   Thumb Code    14  handlers.o(i.__scatterload_zeroinit)
    __set_errno                              0x08005999   Thumb Code     6  errno.o(i.__set_errno)
    delay_ms                                 0x08006261   Thumb Code    20  rn8302b.o(i.delay_ms)
    delay_us                                 0x08006275   Thumb Code    12  ht1622x.o(i.delay_us)
    dispLCD_Loop                             0x08006281   Thumb Code   340  lcd_rt625181.o(i.dispLCD_Loop)
    dispMA1                                  0x080063e5   Thumb Code   354  lcd_rt625181.o(i.dispMA1)
    dispMA2                                  0x08006551   Thumb Code   326  lcd_rt625181.o(i.dispMA2)
    dispPassword                             0x080066a1   Thumb Code   232  lcd_rt625181.o(i.dispPassword)
    dispSystick                              0x0800679d   Thumb Code    10  lcd_rt625181.o(i.dispSystick)
    dispVol                                  0x080067ad   Thumb Code   186  lcd_rt625181.o(i.dispVol)
    disp_Flag                                0x08006871   Thumb Code   118  lcd_rt625181.o(i.disp_Flag)
    disp_init                                0x080068ed   Thumb Code    40  lcd_rt625181.o(i.disp_init)
    fnDelay2us                               0x08006915   Thumb Code    12  rn8302b.o(i.fnDelay2us)
    fnRN8302_Init                            0x08006921   Thumb Code   638  rn8302b.o(i.fnRN8302_Init)
    ht1622x_display_all                      0x08007051   Thumb Code    54  ht1622x.o(i.ht1622x_display_all)
    ht1622x_init                             0x08007087   Thumb Code    34  ht1622x.o(i.ht1622x_init)
    ht1622x_send_bits                        0x080070a9   Thumb Code    56  ht1622x.o(i.ht1622x_send_bits)
    ht1622x_send_cmd                         0x080070e1   Thumb Code    54  ht1622x.o(i.ht1622x_send_cmd)
    ht1622x_send_data                        0x08007117   Thumb Code    54  ht1622x.o(i.ht1622x_send_data)
    m26_send                                 0x0800714d   Thumb Code    22  m2g.o(i.m26_send)
    main                                     0x08007169   Thumb Code   274  main.o(i.main)
    touchBSP                                 0x08007285   Thumb Code    64  touchkey.o(i.touchBSP)
    TEMPER_TABLE                             0x080072cc   Data        1520  tem_adc.o(.constdata)
    LeakTable                                0x080078bc   Data         312  tem_adc.o(.constdata)
    number_table1                            0x08007a3a   Data          10  lcd_rt625181.o(.constdata)
    number_table2                            0x08007a44   Data          10  lcd_rt625181.o(.constdata)
    number_table5                            0x08007a4e   Data          10  lcd_rt625181.o(.constdata)
    number_table6                            0x08007a58   Data          10  lcd_rt625181.o(.constdata)
    number_table7                            0x08007a62   Data          10  lcd_rt625181.o(.constdata)
    number_table8                            0x08007a6c   Data          10  lcd_rt625181.o(.constdata)
    aPLLMULFactorTable                       0x08007a76   Data          16  stm32f3xx_hal_rcc.o(.constdata)
    aPredivFactorTable                       0x08007a86   Data          16  stm32f3xx_hal_rcc.o(.constdata)
    AHBPrescTable                            0x08007a96   Data          16  system_stm32f3xx.o(.constdata)
    APBPrescTable                            0x08007aa6   Data           8  system_stm32f3xx.o(.constdata)
    Region$$Table$$Base                      0x08007ab8   Number         0  anon$$obj.o(Region$$Table)
    Region$$Table$$Limit                     0x08007ad8   Number         0  anon$$obj.o(Region$$Table)
    rx_flag                                  0x20000000   Data           4  main.o(.data)
    rx_cnt1                                  0x20000004   Data           4  main.o(.data)
    blackuart                                0x20000008   Data         256  main.o(.data)
    ledstatus                                0x20000108   Data           1  system_config.o(.data)
    enternfactormode                         0x20000109   Data           1  system_config.o(.data)
    gSystemmsemodenable                      0x2000010a   Data           1  system_config.o(.data)
    minutecnt                                0x2000010c   Data           4  system_config.o(.data)
    adcenable                                0x20000110   Data           4  system_config.o(.data)
    Rn8302_enable                            0x20000114   Data           4  system_config.o(.data)
    gsystem_run                              0x20000118   Data           4  system_config.o(.data)
    gsystime5s                               0x2000011c   Data           4  system_config.o(.data)
    gbeepflag1                               0x20000120   Data           4  system_config.o(.data)
    gbeepflag2                               0x20000124   Data           4  system_config.o(.data)
    temperenable                             0x20000128   Data           4  system_config.o(.data)
    leakenable                               0x2000012c   Data           4  system_config.o(.data)
    lockdowmenable                           0x20000130   Data           4  system_config.o(.data)
    password                                 0x20000134   Data           4  system_config.o(.data)
    msemode                                  0x20000138   Data           4  system_config.o(.data)
    passwordindex                            0x2000013c   Data           4  system_config.o(.data)
    gLeakCurrent                             0x20000140   Data           4  tem_adc.o(.data)
    testFactoryadc                           0x20000144   Data           4  tem_adc.o(.data)
    EleFinish                                0x20000148   Data           4  tem_adc.o(.data)
    gEleGather                               0x2000014c   Data           4  tem_adc.o(.data)
    testgLeak                                0x20000150   Data           4  tem_adc.o(.data)
    testtemper                               0x20000158   Data           4  tem_adc.o(.data)
    indexmax                                 0x2000015c   Data           4  tem_adc.o(.data)
    indexmin                                 0x20000160   Data           4  tem_adc.o(.data)
    SysStamp                                 0x20000164   Data           2  rn8302b.o(.data)
    regstatus                                0x20000166   Data           2  rn8302b.o(.data)
    testxt123                                0x20000168   Data           4  rn8302b.o(.data)
    test                                     0x2000016c   Data           4  rn8302b.o(.data)
    channel_status                           0x20000170   Data           1  lcd_rt625181.o(.data)
    gdispSystick                             0x20000174   Data           4  lcd_rt625181.o(.data)
    uwTickFreq                               0x20000178   Data           1  stm32f3xx_hal.o(.data)
    uwTickPrio                               0x2000017c   Data           4  stm32f3xx_hal.o(.data)
    uwTick                                   0x20000180   Data           4  stm32f3xx_hal.o(.data)
    SystemCoreClock                          0x20000184   Data           4  system_stm32f3xx.o(.data)
    m26_Initable                             0x20000188   Data           4  m2g.o(.data)
    sendserverstatus                         0x2000018c   Data           4  m2g.o(.data)
    gStatus_reportsta                        0x20000190   Data           4  m2g.o(.data)
    reportloopenable                         0x20000194   Data           4  m2g.o(.data)
    gHeart_BeatStatus                        0x20000198   Data           4  m2g.o(.data)
    gHeart_Beatenable                        0x2000019c   Data           4  m2g.o(.data)
    mkeystatus                               0x200001a0   Data           1  touchkey.o(.data)
    mkeywrite                                0x200001a4   Data           1  touchkey.o(.data)
    mkeyread                                 0x200001a8   Data           1  touchkey.o(.data)
    mLastKeyRead                             0x200001a9   Data           1  touchkey.o(.data)
    mKeySaveEnable                           0x200001aa   Data           1  touchkey.o(.data)
    _key_value                               0x200001ac   Data           2  touchkey.o(.data)
    _key_valuestatus                         0x200001ae   Data           2  touchkey.o(.data)
    keyEventValue                            0x200001b0   Data           2  touchkey.o(.data)
    device_name                              0x200001b4   Data           4  touchkey.o(.data)
    mKey_PressCnt                            0x200001b8   Data           4  touchkey.o(.data)
    mKey_ShortCnt                            0x200001bc   Data           4  touchkey.o(.data)
    mkeyLongEnv                              0x200001c0   Data           4  touchkey.o(.data)
    _curreadKey                              0x200001c4   Data           4  touchkey.o(.data)
    gkey_timer_1msenable                     0x200001c8   Data           4  touchkey.o(.data)
    lastkeyastatus                           0x200001d0   Data           4  touchkey.o(.data)
    lastkeybstatus                           0x200001d4   Data           4  touchkey.o(.data)
    lastkeycstatus                           0x200001d8   Data           4  touchkey.o(.data)
    hadc1                                    0x200001e0   Data          84  main.o(.bss)
    hiwdg                                    0x20000234   Data          16  main.o(.bss)
    huart3                                   0x20000244   Data         112  main.o(.bss)
    htim1                                    0x200002b4   Data          64  main.o(.bss)
    htim2                                    0x200002f4   Data          64  main.o(.bss)
    hdma_adc1                                0x20000334   Data          68  main.o(.bss)
    hdma_usart3_rx                           0x20000378   Data          68  main.o(.bss)
    hdma_usart3_tx                           0x200003bc   Data          68  main.o(.bss)
    gEnternmode                              0x20000400   Data          16  system_config.o(.bss)
    gEnternmodeenable                        0x20000410   Data          16  system_config.o(.bss)
    gSystem_TimeInfo                         0x20000420   Data          44  system_config.o(.bss)
    gSystem_Info                             0x2000044c   Data         184  system_config.o(.bss)
    Gather_temper                            0x20000510   Data          20  tem_adc.o(.bss)
    adc_value1                               0x20000524   Data        2560  tem_adc.o(.bss)
    uhADCxConvertedValue                     0x20000f24   Data          20  tem_adc.o(.bss)
    EleADCCalue                              0x20000f38   Data         800  tem_adc.o(.bss)
    Dl645FrontTmp                            0x20001258   Data         536  rn8302b.o(.bss)
    Dl645Front                               0x20001470   Data         448  rn8302b.o(.bss)
    Dl645Eg                                  0x20001630   Data         760  rn8302b.o(.bss)
    Dl645FirmPara                            0x20001928   Data         112  rn8302b.o(.bss)
    StDef_RN8302Para_Reg                     0x20001998   Data          19  rn8302b.o(.bss)
    gRN_Info                                 0x200019ac   Data          56  rn8302b.o(.bss)
    testAwave                                0x200019e4   Data          12  rn8302b.o(.bss)
    testIwave                                0x200019f0   Data          12  rn8302b.o(.bss)
    testPower                                0x200019fc   Data          12  rn8302b.o(.bss)
    dc_offser_regbuf                         0x20001a08   Data          12  rn8302b.o(.bss)
    glcd_raminfo                             0x20001a14   Data          50  lcd_rt625181.o(.bss)
    pFlash                                   0x20001a48   Data          32  stm32f3xx_hal_flash.o(.bss)
    gQuer_M2GManeger                         0x20001a68   Data          52  m2g.o(.bss)
    mKeyPool                                 0x20001a9c   Data          10  touchkey.o(.bss)
    mKeyStatusPool                           0x20001aa8   Data          10  touchkey.o(.bss)
    __initial_sp                             0x20001eb8   Data           0  startup_stm32f302xc.o(STACK)



==============================================================================

Memory Map of the image

  Image Entry point : 0x08000189

  Load Region LR_IROM1 (Base: 0x08000000, Size: 0x00007cb8, Max: 0x00020000, ABSOLUTE, COMPRESSED[0x00007af8])

    Execution Region ER_IROM1 (Exec base: 0x08000000, Load base: 0x08000000, Size: 0x00007ad8, Max: 0x00020000, ABSOLUTE)

    Exec Addr    Load Addr    Size         Type   Attr      Idx    E Section Name        Object

    0x08000000   0x08000000   0x00000188   Data   RO            3    RESET               startup_stm32f302xc.o
    0x08000188   0x08000188   0x00000000   Code   RO         4604  * .ARM.Collect$$$$00000000  mc_w.l(entry.o)
    0x08000188   0x08000188   0x00000004   Code   RO         4896    .ARM.Collect$$$$00000001  mc_w.l(entry2.o)
    0x0800018c   0x0800018c   0x00000004   Code   RO         4899    .ARM.Collect$$$$00000004  mc_w.l(entry5.o)
    0x08000190   0x08000190   0x00000000   Code   RO         4901    .ARM.Collect$$$$00000008  mc_w.l(entry7b.o)
    0x08000190   0x08000190   0x00000000   Code   RO         4903    .ARM.Collect$$$$0000000A  mc_w.l(entry8b.o)
    0x08000190   0x08000190   0x00000008   Code   RO         4904    .ARM.Collect$$$$0000000B  mc_w.l(entry9a.o)
    0x08000198   0x08000198   0x00000000   Code   RO         4906    .ARM.Collect$$$$0000000D  mc_w.l(entry10a.o)
    0x08000198   0x08000198   0x00000000   Code   RO         4908    .ARM.Collect$$$$0000000F  mc_w.l(entry11a.o)
    0x08000198   0x08000198   0x00000004   Code   RO         4897    .ARM.Collect$$$$00002712  mc_w.l(entry2.o)
    0x0800019c   0x0800019c   0x00000024   Code   RO            4    .text               startup_stm32f302xc.o
    0x080001c0   0x080001c0   0x00000020   Code   RO         4607    .text               mc_w.l(llushr.o)
    0x080001e0   0x080001e0   0x00000024   Code   RO         4611    .text               mc_w.l(memseta.o)
    0x08000204   0x08000204   0x0000000e   Code   RO         4615    .text               mc_w.l(strlen.o)
    0x08000212   0x08000212   0x0000014e   Code   RO         4880    .text               mf_w.l(dadd.o)
    0x08000360   0x08000360   0x000000e4   Code   RO         4882    .text               mf_w.l(dmul.o)
    0x08000444   0x08000444   0x000000de   Code   RO         4884    .text               mf_w.l(ddiv.o)
    0x08000522   0x08000522   0x00000022   Code   RO         4886    .text               mf_w.l(dflti.o)
    0x08000544   0x08000544   0x0000001a   Code   RO         4888    .text               mf_w.l(dfltui.o)
    0x0800055e   0x0800055e   0x00000026   Code   RO         4892    .text               mf_w.l(f2d.o)
    0x08000584   0x08000584   0x00000038   Code   RO         4894    .text               mf_w.l(d2f.o)
    0x080005bc   0x080005bc   0x0000002c   Code   RO         4913    .text               mc_w.l(uidiv.o)
    0x080005e8   0x080005e8   0x00000062   Code   RO         4915    .text               mc_w.l(uldiv.o)
    0x0800064a   0x0800064a   0x0000001e   Code   RO         4917    .text               mc_w.l(llshl.o)
    0x08000668   0x08000668   0x00000024   Code   RO         4919    .text               mc_w.l(llsshr.o)
    0x0800068c   0x0800068c   0x00000000   Code   RO         4928    .text               mc_w.l(iusefp.o)
    0x0800068c   0x0800068c   0x0000006e   Code   RO         4929    .text               mf_w.l(fepilogue.o)
    0x080006fa   0x080006fa   0x000000ba   Code   RO         4931    .text               mf_w.l(depilogue.o)
    0x080007b4   0x080007b4   0x000000a2   Code   RO         4933    .text               mf_w.l(dsqrt.o)
    0x08000856   0x08000856   0x00000030   Code   RO         4935    .text               mf_w.l(dfixul.o)
    0x08000886   0x08000886   0x00000002   PAD
    0x08000888   0x08000888   0x00000030   Code   RO         4939    .text               mf_w.l(cdrcmple.o)
    0x080008b8   0x080008b8   0x00000024   Code   RO         4941    .text               mc_w.l(init.o)
    0x080008dc   0x080008dc   0x0000003a   Code   RO         4953    .text               mc_w.l(__dczerorl.o)
    0x08000916   0x08000916   0x00000002   PAD
    0x08000918   0x08000918   0x0000000c   Code   RO          260    i.ADC1_2_IRQHandler  stm32f3xx_it.o
    0x08000924   0x08000924   0x00000044   Code   RO         1466    i.ADC_DMAConvCplt   stm32f3xx_hal_adc_ex.o
    0x08000968   0x08000968   0x00000016   Code   RO         1467    i.ADC_DMAError      stm32f3xx_hal_adc_ex.o
    0x0800097e   0x0800097e   0x00000006   Code   RO         1468    i.ADC_DMAHalfConvCplt  stm32f3xx_hal_adc_ex.o
    0x08000984   0x08000984   0x00000060   Code   RO         1469    i.ADC_Disable       stm32f3xx_hal_adc_ex.o
    0x080009e4   0x080009e4   0x00000060   Code   RO         1470    i.ADC_Enable        stm32f3xx_hal_adc_ex.o
    0x08000a44   0x08000a44   0x0000004c   Code   RO          440    i.Beep_Init         system_config.o
    0x08000a90   0x08000a90   0x00000014   Code   RO          441    i.Beep_Onoff        system_config.o
    0x08000aa4   0x08000aa4   0x00000002   Code   RO          261    i.BusFault_Handler  stm32f3xx_it.o
    0x08000aa6   0x08000aa6   0x00000002   PAD
    0x08000aa8   0x08000aa8   0x0000000c   Code   RO          262    i.DMA1_Channel1_IRQHandler  stm32f3xx_it.o
    0x08000ab4   0x08000ab4   0x0000000c   Code   RO          263    i.DMA1_Channel2_IRQHandler  stm32f3xx_it.o
    0x08000ac0   0x08000ac0   0x0000000c   Code   RO          264    i.DMA1_Channel3_IRQHandler  stm32f3xx_it.o
    0x08000acc   0x08000acc   0x0000003c   Code   RO         3455    i.DMA_CalcBaseAndBitshift  stm32f3xx_hal_dma.o
    0x08000b08   0x08000b08   0x0000002a   Code   RO         3456    i.DMA_SetConfig     stm32f3xx_hal_dma.o
    0x08000b32   0x08000b32   0x00000002   Code   RO          265    i.DebugMon_Handler  stm32f3xx_it.o
    0x08000b34   0x08000b34   0x0000000c   Code   RO          663    i.Delay1us          rn8302b.o
    0x08000b40   0x08000b40   0x0000000c   Code   RO           13    i.Delay2us          main.o
    0x08000b4c   0x08000b4c   0x0000001a   Code   RO          664    i.Delay5ms          rn8302b.o
    0x08000b66   0x08000b66   0x0000001c   Code   RO           14    i.Delay_10ms        main.o
    0x08000b82   0x08000b82   0x0000001c   Code   RO          665    i.Delay_ms          rn8302b.o
    0x08000b9e   0x08000b9e   0x00000002   PAD
    0x08000ba0   0x08000ba0   0x00000094   Code   RO         1035    i.Disp_ABC          lcd_rt625181.o
    0x08000c34   0x08000c34   0x00000104   Code   RO         1036    i.Disp_Number1      lcd_rt625181.o
    0x08000d38   0x08000d38   0x000000f0   Code   RO         1037    i.Disp_Number2      lcd_rt625181.o
    0x08000e28   0x08000e28   0x0000010c   Code   RO         1038    i.Disp_Number3      lcd_rt625181.o
    0x08000f34   0x08000f34   0x00000100   Code   RO         1039    i.Disp_Number4      lcd_rt625181.o
    0x08001034   0x08001034   0x000000f4   Code   RO         1040    i.Disp_Number5      lcd_rt625181.o
    0x08001128   0x08001128   0x00000016   Code   RO         1042    i.Disp_Ram          lcd_rt625181.o
    0x0800113e   0x0800113e   0x00000002   PAD
    0x08001140   0x08001140   0x000000ac   Code   RO         1043    i.Disp_Sig          lcd_rt625181.o
    0x080011ec   0x080011ec   0x000000b4   Code   RO         1044    i.Disp_Temper       lcd_rt625181.o
    0x080012a0   0x080012a0   0x000000c4   Code   RO          582    i.EleHandle_Loop    tem_adc.o
    0x08001364   0x08001364   0x00000002   Code   RO           15    i.Error_Handler     main.o
    0x08001366   0x08001366   0x00000002   PAD
    0x08001368   0x08001368   0x00000024   Code   RO         3931    i.FLASH_MassErase   stm32f3xx_hal_flash_ex.o
    0x0800138c   0x0800138c   0x00000024   Code   RO         3936    i.FLASH_PageErase   stm32f3xx_hal_flash_ex.o
    0x080013b0   0x080013b0   0x00000034   Code   RO         3829    i.FLASH_SetErrorCode  stm32f3xx_hal_flash.o
    0x080013e4   0x080013e4   0x00000050   Code   RO         3830    i.FLASH_WaitForLastOperation  stm32f3xx_hal_flash.o
    0x08001434   0x08001434   0x000002d4   Code   RO          583    i.GetLeak           tem_adc.o
    0x08001708   0x08001708   0x00000094   Code   RO         1473    i.HAL_ADCEx_Calibration_Start  stm32f3xx_hal_adc_ex.o
    0x0800179c   0x0800179c   0x00000002   Code   RO         1475    i.HAL_ADCEx_InjectedConvCpltCallback  stm32f3xx_hal_adc_ex.o
    0x0800179e   0x0800179e   0x00000002   Code   RO         1478    i.HAL_ADCEx_InjectedQueueOverflowCallback  stm32f3xx_hal_adc_ex.o
    0x080017a0   0x080017a0   0x00000002   Code   RO         1483    i.HAL_ADCEx_LevelOutOfWindow2Callback  stm32f3xx_hal_adc_ex.o
    0x080017a2   0x080017a2   0x00000002   Code   RO         1484    i.HAL_ADCEx_LevelOutOfWindow3Callback  stm32f3xx_hal_adc_ex.o
    0x080017a4   0x080017a4   0x000000dc   Code   RO         1485    i.HAL_ADCEx_MultiModeConfigChannel  stm32f3xx_hal_adc_ex.o
    0x08001880   0x08001880   0x0000034c   Code   RO         1494    i.HAL_ADC_ConfigChannel  stm32f3xx_hal_adc_ex.o
    0x08001bcc   0x08001bcc   0x00000002   Code   RO         1317    i.HAL_ADC_ConvCpltCallback  stm32f3xx_hal_adc.o
    0x08001bce   0x08001bce   0x00000002   Code   RO         1318    i.HAL_ADC_ConvHalfCpltCallback  stm32f3xx_hal_adc.o
    0x08001bd0   0x08001bd0   0x00000002   Code   RO         1320    i.HAL_ADC_ErrorCallback  stm32f3xx_hal_adc.o
    0x08001bd2   0x08001bd2   0x00000002   PAD
    0x08001bd4   0x08001bd4   0x00000268   Code   RO         1497    i.HAL_ADC_IRQHandler  stm32f3xx_hal_adc_ex.o
    0x08001e3c   0x08001e3c   0x000001e0   Code   RO         1498    i.HAL_ADC_Init      stm32f3xx_hal_adc_ex.o
    0x0800201c   0x0800201c   0x00000002   Code   RO         1326    i.HAL_ADC_LevelOutOfWindowCallback  stm32f3xx_hal_adc.o
    0x0800201e   0x0800201e   0x00000002   PAD
    0x08002020   0x08002020   0x000000bc   Code   RO          386    i.HAL_ADC_MspInit   stm32f3xx_hal_msp.o
    0x080020dc   0x080020dc   0x00000108   Code   RO         1502    i.HAL_ADC_Start_DMA  stm32f3xx_hal_adc_ex.o
    0x080021e4   0x080021e4   0x00000030   Code   RO         3457    i.HAL_DMA_Abort     stm32f3xx_hal_dma.o
    0x08002214   0x08002214   0x0000004a   Code   RO         3458    i.HAL_DMA_Abort_IT  stm32f3xx_hal_dma.o
    0x0800225e   0x0800225e   0x000000aa   Code   RO         3462    i.HAL_DMA_IRQHandler  stm32f3xx_hal_dma.o
    0x08002308   0x08002308   0x0000004e   Code   RO         3463    i.HAL_DMA_Init      stm32f3xx_hal_dma.o
    0x08002356   0x08002356   0x00000070   Code   RO         3467    i.HAL_DMA_Start_IT  stm32f3xx_hal_dma.o
    0x080023c6   0x080023c6   0x00000002   PAD
    0x080023c8   0x080023c8   0x00000024   Code   RO         3075    i.HAL_Delay         stm32f3xx_hal.o
    0x080023ec   0x080023ec   0x000000a8   Code   RO         3937    i.HAL_FLASHEx_Erase  stm32f3xx_hal_flash_ex.o
    0x08002494   0x08002494   0x00000028   Code   RO         3841    i.HAL_FLASH_Unlock  stm32f3xx_hal_flash.o
    0x080024bc   0x080024bc   0x00000190   Code   RO         3392    i.HAL_GPIO_Init     stm32f3xx_hal_gpio.o
    0x0800264c   0x0800264c   0x0000000a   Code   RO         3394    i.HAL_GPIO_ReadPin  stm32f3xx_hal_gpio.o
    0x08002656   0x08002656   0x0000000a   Code   RO         3396    i.HAL_GPIO_WritePin  stm32f3xx_hal_gpio.o
    0x08002660   0x08002660   0x0000000c   Code   RO         3079    i.HAL_GetTick       stm32f3xx_hal.o
    0x0800266c   0x0800266c   0x0000005c   Code   RO         4158    i.HAL_IWDG_Init     stm32f3xx_hal_iwdg.o
    0x080026c8   0x080026c8   0x0000000c   Code   RO         4159    i.HAL_IWDG_Refresh  stm32f3xx_hal_iwdg.o
    0x080026d4   0x080026d4   0x00000010   Code   RO         3085    i.HAL_IncTick       stm32f3xx_hal.o
    0x080026e4   0x080026e4   0x00000024   Code   RO         3086    i.HAL_Init          stm32f3xx_hal.o
    0x08002708   0x08002708   0x00000040   Code   RO         3087    i.HAL_InitTick      stm32f3xx_hal.o
    0x08002748   0x08002748   0x0000002c   Code   RO          387    i.HAL_MspInit       stm32f3xx_hal_msp.o
    0x08002774   0x08002774   0x00000016   Code   RO         3559    i.HAL_NVIC_DisableIRQ  stm32f3xx_hal_cortex.o
    0x0800278a   0x0800278a   0x00000016   Code   RO         3560    i.HAL_NVIC_EnableIRQ  stm32f3xx_hal_cortex.o
    0x080027a0   0x080027a0   0x00000040   Code   RO         3566    i.HAL_NVIC_SetPriority  stm32f3xx_hal_cortex.o
    0x080027e0   0x080027e0   0x00000024   Code   RO         3567    i.HAL_NVIC_SetPriorityGrouping  stm32f3xx_hal_cortex.o
    0x08002804   0x08002804   0x000001f4   Code   RO         3349    i.HAL_RCCEx_PeriphCLKConfig  stm32f3xx_hal_rcc_ex.o
    0x080029f8   0x080029f8   0x0000014c   Code   RO         3243    i.HAL_RCC_ClockConfig  stm32f3xx_hal_rcc.o
    0x08002b44   0x08002b44   0x00000030   Code   RO         3250    i.HAL_RCC_GetPCLK1Freq  stm32f3xx_hal_rcc.o
    0x08002b74   0x08002b74   0x00000030   Code   RO         3251    i.HAL_RCC_GetPCLK2Freq  stm32f3xx_hal_rcc.o
    0x08002ba4   0x08002ba4   0x00000064   Code   RO         3252    i.HAL_RCC_GetSysClockFreq  stm32f3xx_hal_rcc.o
    0x08002c08   0x08002c08   0x000005a4   Code   RO         3255    i.HAL_RCC_OscConfig  stm32f3xx_hal_rcc.o
    0x080031ac   0x080031ac   0x00000028   Code   RO         3571    i.HAL_SYSTICK_Config  stm32f3xx_hal_cortex.o
    0x080031d4   0x080031d4   0x00000002   Code   RO         2375    i.HAL_TIMEx_Break2Callback  stm32f3xx_hal_tim_ex.o
    0x080031d6   0x080031d6   0x00000002   Code   RO         2376    i.HAL_TIMEx_BreakCallback  stm32f3xx_hal_tim_ex.o
    0x080031d8   0x080031d8   0x00000002   Code   RO         2377    i.HAL_TIMEx_CommutationCallback  stm32f3xx_hal_tim_ex.o
    0x080031da   0x080031da   0x00000002   PAD
    0x080031dc   0x080031dc   0x0000004c   Code   RO         2394    i.HAL_TIMEx_MasterConfigSynchronization  stm32f3xx_hal_tim_ex.o
    0x08003228   0x08003228   0x00000036   Code   RO         1731    i.HAL_TIM_Base_Init  stm32f3xx_hal_tim.o
    0x0800325e   0x0800325e   0x00000002   PAD
    0x08003260   0x08003260   0x00000060   Code   RO          388    i.HAL_TIM_Base_MspInit  stm32f3xx_hal_msp.o
    0x080032c0   0x080032c0   0x00000018   Code   RO         1736    i.HAL_TIM_Base_Start_IT  stm32f3xx_hal_tim.o
    0x080032d8   0x080032d8   0x0000002a   Code   RO         1739    i.HAL_TIM_Base_Stop_IT  stm32f3xx_hal_tim.o
    0x08003302   0x08003302   0x00000002   PAD
    0x08003304   0x08003304   0x000000f8   Code   RO         1740    i.HAL_TIM_ConfigClockSource  stm32f3xx_hal_tim.o
    0x080033fc   0x080033fc   0x00000002   Code   RO         1762    i.HAL_TIM_IC_CaptureCallback  stm32f3xx_hal_tim.o
    0x080033fe   0x080033fe   0x00000184   Code   RO         1775    i.HAL_TIM_IRQHandler  stm32f3xx_hal_tim.o
    0x08003582   0x08003582   0x00000002   Code   RO         1778    i.HAL_TIM_OC_DelayElapsedCallback  stm32f3xx_hal_tim.o
    0x08003584   0x08003584   0x00000002   Code   RO         1805    i.HAL_TIM_PWM_PulseFinishedCallback  stm32f3xx_hal_tim.o
    0x08003586   0x08003586   0x00000002   PAD
    0x08003588   0x08003588   0x00000084   Code   RO          584    i.HAL_TIM_PeriodElapsedCallback  tem_adc.o
    0x0800360c   0x0800360c   0x00000002   Code   RO         1816    i.HAL_TIM_TriggerCallback  stm32f3xx_hal_tim.o
    0x0800360e   0x0800360e   0x00000002   Code   RO         3019    i.HAL_UARTEx_WakeupCallback  stm32f3xx_hal_uart_ex.o
    0x08003610   0x08003610   0x00000054   Code   RO         2674    i.HAL_UART_DMAStop  stm32f3xx_hal_uart.o
    0x08003664   0x08003664   0x00000002   Code   RO         2676    i.HAL_UART_ErrorCallback  stm32f3xx_hal_uart.o
    0x08003666   0x08003666   0x00000002   PAD
    0x08003668   0x08003668   0x00000140   Code   RO         2679    i.HAL_UART_IRQHandler  stm32f3xx_hal_uart.o
    0x080037a8   0x080037a8   0x0000006a   Code   RO         2680    i.HAL_UART_Init     stm32f3xx_hal_uart.o
    0x08003812   0x08003812   0x00000002   PAD
    0x08003814   0x08003814   0x000000f0   Code   RO          390    i.HAL_UART_MspInit  stm32f3xx_hal_msp.o
    0x08003904   0x08003904   0x00000094   Code   RO         2684    i.HAL_UART_Receive_DMA  stm32f3xx_hal_uart.o
    0x08003998   0x08003998   0x0000001c   Code   RO           16    i.HAL_UART_RxCpltCallback  main.o
    0x080039b4   0x080039b4   0x00000002   Code   RO         2687    i.HAL_UART_RxHalfCpltCallback  stm32f3xx_hal_uart.o
    0x080039b6   0x080039b6   0x00000002   PAD
    0x080039b8   0x080039b8   0x00000088   Code   RO         2689    i.HAL_UART_Transmit_DMA  stm32f3xx_hal_uart.o
    0x08003a40   0x08003a40   0x00000002   Code   RO         2691    i.HAL_UART_TxCpltCallback  stm32f3xx_hal_uart.o
    0x08003a42   0x08003a42   0x00000002   Code   RO         2692    i.HAL_UART_TxHalfCpltCallback  stm32f3xx_hal_uart.o
    0x08003a44   0x08003a44   0x0000009c   Code   RO         4226    i.HAL_USART_User    stm302.lib(m2g.o)
    0x08003ae0   0x08003ae0   0x00000002   Code   RO          266    i.HardFault_Handler  stm32f3xx_it.o
    0x08003ae2   0x08003ae2   0x00000002   PAD
    0x08003ae4   0x08003ae4   0x0000000c   Code   RO         4311    i.Key_ClearEvent    stm302.lib(touchkey.o)
    0x08003af0   0x08003af0   0x00000040   Code   RO         4312    i.Key_GetEvent      stm302.lib(touchkey.o)
    0x08003b30   0x08003b30   0x00000168   Code   RO          442    i.Key_HandleByUser  system_config.o
    0x08003c98   0x08003c98   0x00000084   Code   RO         4313    i.Key_Loop          stm302.lib(touchkey.o)
    0x08003d1c   0x08003d1c   0x00000024   Code   RO         4314    i.Key_PeriodHandle  stm302.lib(touchkey.o)
    0x08003d40   0x08003d40   0x00000038   Code   RO         4316    i.Key_Press         stm302.lib(touchkey.o)
    0x08003d78   0x08003d78   0x00000034   Code   RO         4317    i.Key_ReadFactory   stm302.lib(touchkey.o)
    0x08003dac   0x08003dac   0x0000002c   Code   RO         4319    i.Key_VirtualInit   stm302.lib(touchkey.o)
    0x08003dd8   0x08003dd8   0x0000004c   Code   RO         1047    i.LCD_PowerOn       lcd_rt625181.o
    0x08003e24   0x08003e24   0x00000078   Code   RO           18    i.M26_PowerOn       main.o
    0x08003e9c   0x08003e9c   0x000000bc   Code   RO           19    i.MX_ADC1_Init      main.o
    0x08003f58   0x08003f58   0x00000020   Code   RO           20    i.MX_IWDG_Init1     main.o
    0x08003f78   0x08003f78   0x00000060   Code   RO           21    i.MX_TIM1_Init      main.o
    0x08003fd8   0x08003fd8   0x00000070   Code   RO           22    i.MX_TIM2_Init      main.o
    0x08004048   0x08004048   0x00000034   Code   RO           23    i.MX_USART3_UART_Init  main.o
    0x0800407c   0x0800407c   0x00000002   Code   RO          267    i.MemManage_Handler  stm32f3xx_it.o
    0x0800407e   0x0800407e   0x00000002   PAD
    0x08004080   0x08004080   0x0000001c   Code   RO          443    i.Mode_adjust       system_config.o
    0x0800409c   0x0800409c   0x00000002   Code   RO          268    i.NMI_Handler       stm32f3xx_it.o
    0x0800409e   0x0800409e   0x00000020   Code   RO         3573    i.NVIC_SetPriority  stm32f3xx_hal_cortex.o
    0x080040be   0x080040be   0x00000002   Code   RO          269    i.PendSV_Handler    stm32f3xx_it.o
    0x080040c0   0x080040c0   0x0000001c   Code   RO         4228    i.Query_Init        stm302.lib(m2g.o)
    0x080040dc   0x080040dc   0x0000002a   Code   RO          666    i.RN8302B_CalibConfig  rn8302b.o
    0x08004106   0x08004106   0x00000002   PAD
    0x08004108   0x08004108   0x00000048   Code   RO          667    i.RN8302B_DCOffset  rn8302b.o
    0x08004150   0x08004150   0x000000c0   Code   RO          669    i.RN8302_CalibrateCurrentOffset  rn8302b.o
    0x08004210   0x08004210   0x00000108   Code   RO          670    i.RN8302_CalibrateIGain  rn8302b.o
    0x08004318   0x08004318   0x000002bc   Code   RO          671    i.RN8302_CalibrateInit  rn8302b.o
    0x080045d4   0x080045d4   0x00000138   Code   RO          673    i.RN8302_CalibrateUGain  rn8302b.o
    0x0800470c   0x0800470c   0x000000fc   Code   RO          674    i.RN830B_SoftInit   rn8302b.o
    0x08004808   0x08004808   0x0000025c   Code   RO          676    i.ReadAvol          rn8302b.o
    0x08004a64   0x08004a64   0x00000002   Code   RO          270    i.SVC_Handler       stm32f3xx_it.o
    0x08004a66   0x08004a66   0x00000002   PAD
    0x08004a68   0x08004a68   0x00000018   Code   RO          445    i.Switch_Alm        system_config.o
    0x08004a80   0x08004a80   0x00000058   Code   RO          446    i.Switch_Init       system_config.o
    0x08004ad8   0x08004ad8   0x00000028   Code   RO          448    i.SysTem_SaveFileInit  system_config.o
    0x08004b00   0x08004b00   0x00000004   Code   RO          271    i.SysTick_Handler   stm32f3xx_it.o
    0x08004b04   0x08004b04   0x0000006e   Code   RO           24    i.SystemClock_Config  main.o
    0x08004b72   0x08004b72   0x00000002   PAD
    0x08004b74   0x08004b74   0x00000068   Code   RO         4189    i.SystemInit        system_stm32f3xx.o
    0x08004bdc   0x08004bdc   0x0000003c   Code   RO          449    i.System_Config     system_config.o
    0x08004c18   0x08004c18   0x000000b0   Code   RO          450    i.System_EnterMode  system_config.o
    0x08004cc8   0x08004cc8   0x00000074   Code   RO          453    i.System_Led_Init   system_config.o
    0x08004d3c   0x08004d3c   0x00000030   Code   RO          454    i.System_Led_Onoff  system_config.o
    0x08004d6c   0x08004d6c   0x000000d8   Code   RO          457    i.System_TimerPeriod  system_config.o
    0x08004e44   0x08004e44   0x0000016c   Code   RO          458    i.System_TimerUpdate  system_config.o
    0x08004fb0   0x08004fb0   0x00000024   Code   RO          272    i.TIM1_UP_TIM16_IRQHandler  stm32f3xx_it.o
    0x08004fd4   0x08004fd4   0x0000000c   Code   RO          273    i.TIM2_IRQHandler   stm32f3xx_it.o
    0x08004fe0   0x08004fe0   0x00000098   Code   RO         1817    i.TIM_Base_SetConfig  stm32f3xx_hal_tim.o
    0x08005078   0x08005078   0x00000014   Code   RO         1824    i.TIM_ETR_SetConfig  stm32f3xx_hal_tim.o
    0x0800508c   0x0800508c   0x00000010   Code   RO         1825    i.TIM_ITRx_SetConfig  stm32f3xx_hal_tim.o
    0x0800509c   0x0800509c   0x00000022   Code   RO         1831    i.TIM_TI1_ConfigInputStage  stm32f3xx_hal_tim.o
    0x080050be   0x080050be   0x00000024   Code   RO         1833    i.TIM_TI2_ConfigInputStage  stm32f3xx_hal_tim.o
    0x080050e2   0x080050e2   0x00000002   PAD
    0x080050e4   0x080050e4   0x00000034   Code   RO          586    i.Tem_AdcInit       tem_adc.o
    0x08005118   0x08005118   0x00000070   Code   RO          587    i.Tem_AdcLoop       tem_adc.o
    0x08005188   0x08005188   0x0000007c   Code   RO          588    i.Tem_Gettemplate   tem_adc.o
    0x08005204   0x08005204   0x000000c8   Code   RO         2693    i.UART_AdvFeatureConfig  stm32f3xx_hal_uart.o
    0x080052cc   0x080052cc   0x0000005c   Code   RO         2694    i.UART_CheckIdleState  stm32f3xx_hal_uart.o
    0x08005328   0x08005328   0x00000014   Code   RO         2695    i.UART_DMAAbortOnError  stm32f3xx_hal_uart.o
    0x0800533c   0x0800533c   0x0000004a   Code   RO         2696    i.UART_DMAError     stm32f3xx_hal_uart.o
    0x08005386   0x08005386   0x0000003e   Code   RO         2697    i.UART_DMAReceiveCplt  stm32f3xx_hal_uart.o
    0x080053c4   0x080053c4   0x0000000a   Code   RO         2699    i.UART_DMARxHalfCplt  stm32f3xx_hal_uart.o
    0x080053ce   0x080053ce   0x00000030   Code   RO         2701    i.UART_DMATransmitCplt  stm32f3xx_hal_uart.o
    0x080053fe   0x080053fe   0x0000000a   Code   RO         2703    i.UART_DMATxHalfCplt  stm32f3xx_hal_uart.o
    0x08005408   0x08005408   0x0000001c   Code   RO         2705    i.UART_EndRxTransfer  stm32f3xx_hal_uart.o
    0x08005424   0x08005424   0x0000001a   Code   RO         2706    i.UART_EndTransmit_IT  stm32f3xx_hal_uart.o
    0x0800543e   0x0800543e   0x00000012   Code   RO         2707    i.UART_EndTxTransfer  stm32f3xx_hal_uart.o
    0x08005450   0x08005450   0x00000076   Code   RO         2708    i.UART_Receive_IT   stm32f3xx_hal_uart.o
    0x080054c6   0x080054c6   0x00000002   PAD
    0x080054c8   0x080054c8   0x000001d4   Code   RO         2709    i.UART_SetConfig    stm32f3xx_hal_uart.o
    0x0800569c   0x0800569c   0x00000062   Code   RO         2710    i.UART_Transmit_IT  stm32f3xx_hal_uart.o
    0x080056fe   0x080056fe   0x00000062   Code   RO         2711    i.UART_WaitOnFlagUntilTimeout  stm32f3xx_hal_uart.o
    0x08005760   0x08005760   0x00000014   Code   RO          274    i.USART3_IRQHandler  stm32f3xx_it.o
    0x08005774   0x08005774   0x00000002   Code   RO          275    i.UsageFault_Handler  stm32f3xx_it.o
    0x08005776   0x08005776   0x00000002   PAD
    0x08005778   0x08005778   0x00000160   Code   RO          459    i.Watch_Loop        system_config.o
    0x080058d8   0x080058d8   0x00000028   Code   RO         4854    i.__0sprintf        mc_w.l(printfa.o)
    0x08005900   0x08005900   0x0000007a   Code   RO         4592    i.__hardfp_sqrt     m_wm.l(sqrt.o)
    0x0800597a   0x0800597a   0x0000000e   Code   RO         4947    i.__scatterload_copy  mc_w.l(handlers.o)
    0x08005988   0x08005988   0x00000002   Code   RO         4948    i.__scatterload_null  mc_w.l(handlers.o)
    0x0800598a   0x0800598a   0x0000000e   Code   RO         4949    i.__scatterload_zeroinit  mc_w.l(handlers.o)
    0x08005998   0x08005998   0x0000000c   Code   RO         4923    i.__set_errno       mc_w.l(errno.o)
    0x080059a4   0x080059a4   0x00000184   Code   RO         4859    i._fp_digits        mc_w.l(printfa.o)
    0x08005b28   0x08005b28   0x000006dc   Code   RO         4860    i._printf_core      mc_w.l(printfa.o)
    0x08006204   0x08006204   0x00000024   Code   RO         4861    i._printf_post_padding  mc_w.l(printfa.o)
    0x08006228   0x08006228   0x0000002e   Code   RO         4862    i._printf_pre_padding  mc_w.l(printfa.o)
    0x08006256   0x08006256   0x0000000a   Code   RO         4864    i._sputc            mc_w.l(printfa.o)
    0x08006260   0x08006260   0x00000014   Code   RO          678    i.delay_ms          rn8302b.o
    0x08006274   0x08006274   0x0000000c   Code   RO         1223    i.delay_us          ht1622x.o
    0x08006280   0x08006280   0x00000164   Code   RO         1050    i.dispLCD_Loop      lcd_rt625181.o
    0x080063e4   0x080063e4   0x0000016c   Code   RO         1051    i.dispMA1           lcd_rt625181.o
    0x08006550   0x08006550   0x00000150   Code   RO         1052    i.dispMA2           lcd_rt625181.o
    0x080066a0   0x080066a0   0x000000fc   Code   RO         1053    i.dispPassword      lcd_rt625181.o
    0x0800679c   0x0800679c   0x00000010   Code   RO         1055    i.dispSystick       lcd_rt625181.o
    0x080067ac   0x080067ac   0x000000c4   Code   RO         1056    i.dispVol           lcd_rt625181.o
    0x08006870   0x08006870   0x0000007c   Code   RO         1057    i.disp_Flag         lcd_rt625181.o
    0x080068ec   0x080068ec   0x00000028   Code   RO         1060    i.disp_init         lcd_rt625181.o
    0x08006914   0x08006914   0x0000000c   Code   RO          682    i.fnDelay2us        rn8302b.o
    0x08006920   0x08006920   0x00000284   Code   RO          687    i.fnRN8302_Init     rn8302b.o
    0x08006ba4   0x08006ba4   0x00000128   Code   RO          688    i.fnRN8302_Read     rn8302b.o
    0x08006ccc   0x08006ccc   0x00000110   Code   RO          689    i.fnRN8302_Write    rn8302b.o
    0x08006ddc   0x08006ddc   0x0000007e   Code   RO          690    i.fnSpi2_ReadByte   rn8302b.o
    0x08006e5a   0x08006e5a   0x000000a8   Code   RO          691    i.fnSpi2_WriteByte  rn8302b.o
    0x08006f02   0x08006f02   0x00000016   Code   RO         1225    i.ht1622_cs_out     ht1622x.o
    0x08006f18   0x08006f18   0x00000054   Code   RO         1227    i.ht1622_data_out   ht1622x.o
    0x08006f6c   0x08006f6c   0x000000cc   Code   RO         1228    i.ht1622_gpio_config  ht1622x.o
    0x08007038   0x08007038   0x00000018   Code   RO         1229    i.ht1622_wr_out     ht1622x.o
    0x08007050   0x08007050   0x00000036   Code   RO         1231    i.ht1622x_display_all  ht1622x.o
    0x08007086   0x08007086   0x00000022   Code   RO         1232    i.ht1622x_init      ht1622x.o
    0x080070a8   0x080070a8   0x00000038   Code   RO         1233    i.ht1622x_send_bits  ht1622x.o
    0x080070e0   0x080070e0   0x00000036   Code   RO         1234    i.ht1622x_send_cmd  ht1622x.o
    0x08007116   0x08007116   0x00000036   Code   RO         1235    i.ht1622x_send_data  ht1622x.o
    0x0800714c   0x0800714c   0x0000001c   Code   RO         4234    i.m26_send          stm302.lib(m2g.o)
    0x08007168   0x08007168   0x0000011c   Code   RO           26    i.main              main.o
    0x08007284   0x08007284   0x00000048   Code   RO         4323    i.touchBSP          stm302.lib(touchkey.o)
    0x080072cc   0x080072cc   0x00000728   Data   RO          593    .constdata          tem_adc.o
    0x080079f4   0x080079f4   0x00000046   Data   RO          694    .constdata          rn8302b.o
    0x08007a3a   0x08007a3a   0x0000003c   Data   RO         1062    .constdata          lcd_rt625181.o
    0x08007a76   0x08007a76   0x00000020   Data   RO         3256    .constdata          stm32f3xx_hal_rcc.o
    0x08007a96   0x08007a96   0x00000010   Data   RO         4190    .constdata          system_stm32f3xx.o
    0x08007aa6   0x08007aa6   0x00000008   Data   RO         4191    .constdata          system_stm32f3xx.o
    0x08007aae   0x08007aae   0x00000002   PAD
    0x08007ab0   0x08007ab0   0x00000005   Data   RO         4330    .conststring        stm302.lib(touchkey.o)
    0x08007ab5   0x08007ab5   0x00000003   PAD
    0x08007ab8   0x08007ab8   0x00000020   Data   RO         4945    Region$$Table       anon$$obj.o


    Execution Region RW_IRAM1 (Exec base: 0x20000000, Load base: 0x08007ad8, Size: 0x00001eb8, Max: 0x00008000, ABSOLUTE, COMPRESSED[0x00000020])

    Exec Addr    Load Addr    Size         Type   Attr      Idx    E Section Name        Object

    0x20000000   COMPRESSED   0x00000108   Data   RW           33    .data               main.o
    0x20000108   COMPRESSED   0x00000038   Data   RW          461    .data               system_config.o
    0x20000140   COMPRESSED   0x00000024   Data   RW          594    .data               tem_adc.o
    0x20000164   COMPRESSED   0x0000000c   Data   RW          698    .data               rn8302b.o
    0x20000170   COMPRESSED   0x00000008   Data   RW         1065    .data               lcd_rt625181.o
    0x20000178   COMPRESSED   0x0000000c   Data   RW         3093    .data               stm32f3xx_hal.o
    0x20000184   COMPRESSED   0x00000004   Data   RW         4192    .data               system_stm32f3xx.o
    0x20000188   COMPRESSED   0x00000018   Data   RW         4237    .data               stm302.lib(m2g.o)
    0x200001a0   COMPRESSED   0x0000003c   Data   RW         4332    .data               stm302.lib(touchkey.o)
    0x200001dc   COMPRESSED   0x00000004   Data   RW         4924    .data               mc_w.l(errno.o)
    0x200001e0        -       0x00000154   Zero   RW           27    .bss                main.o
    0x20000334        -       0x00000044   Zero   RW           28    .bss                main.o
    0x20000378        -       0x00000044   Zero   RW           29    .bss                main.o
    0x200003bc        -       0x00000044   Zero   RW           30    .bss                main.o
    0x20000400        -       0x00000110   Zero   RW          460    .bss                system_config.o
    0x20000510        -       0x00000d48   Zero   RW          591    .bss                tem_adc.o
    0x20001258        -       0x000007bc   Zero   RW          693    .bss                rn8302b.o
    0x20001a14        -       0x00000032   Zero   RW         1061    .bss                lcd_rt625181.o
    0x20001a46   COMPRESSED   0x00000002   PAD
    0x20001a48        -       0x00000020   Zero   RW         3842    .bss                stm32f3xx_hal_flash.o
    0x20001a68        -       0x00000034   Zero   RW         4236    .bss                stm302.lib(m2g.o)
    0x20001a9c        -       0x00000016   Zero   RW         4329    .bss                stm302.lib(touchkey.o)
    0x20001ab2   COMPRESSED   0x00000006   PAD
    0x20001ab8        -       0x00000400   Zero   RW            1    STACK               startup_stm32f302xc.o


==============================================================================

Image component sizes


      Code (inc. data)   RO Data    RW Data    ZI Data      Debug   Object Name

       598         28          0          0          0       5983   ht1622x.o
      3550        166         60          8         50      14034   lcd_rt625181.o
         0          0          0          0          0       5440   lct_rt623832.o
      1064         72          0        264        544     594556   main.o
      4042        176         70         12       1980      25033   rn8302b.o
        36          8        392          0       1024        812   startup_stm32f302xc.o
       164         28          0         12          0      12337   stm32f3xx_hal.o
         8          0          0          0          0       2577   stm32f3xx_hal_adc.o
      2868         82          0          0          0      13232   stm32f3xx_hal_adc_ex.o
       216         14          0          0          0      30881   stm32f3xx_hal_cortex.o
       584         12          0          0          0       5366   stm32f3xx_hal_dma.o
       172         26          0          0         32       2177   stm32f3xx_hal_flash.o
       240         28          0          0          0       3257   stm32f3xx_hal_flash_ex.o
       420         30          0          0          0       3051   stm32f3xx_hal_gpio.o
       104          0          0          0          0       1699   stm32f3xx_hal_iwdg.o
       568         60          0          0          0       3066   stm32f3xx_hal_msp.o
      1972         74         32          0          0       5796   stm32f3xx_hal_rcc.o
       500         14          0          0          0       1572   stm32f3xx_hal_rcc_ex.o
      1022         30          0          0          0      10428   stm32f3xx_hal_tim.o
        82          4          0          0          0       3081   stm32f3xx_hal_tim_ex.o
      2172         86          0          0          0      17135   stm32f3xx_hal_uart.o
         2          0          0          0          0        908   stm32f3xx_hal_uart_ex.o
       136         42          0          0          0       7496   stm32f3xx_it.o
      1968        108          0         56        272      11744   system_config.o
       104         22         24          4          0       1091   system_stm32f3xx.o
      1340        364       1832         36       3400       5637   tem_adc.o

    ----------------------------------------------------------------------
     23976       1474       2444        392       7304     788389   Object Totals
         0          0         32          0          0          0   (incl. Generated)
        44          0          2          0          2          0   (incl. Padding)

    ----------------------------------------------------------------------

      Code (inc. data)   RO Data    RW Data    ZI Data      Debug   Library Member Name

       122          0          0          0          0        148   sqrt.o
        58          0          0          0          0          0   __dczerorl.o
         0          0          0          0          0          0   entry.o
         0          0          0          0          0          0   entry10a.o
         0          0          0          0          0          0   entry11a.o
         8          4          0          0          0          0   entry2.o
         4          0          0          0          0          0   entry5.o
         0          0          0          0          0          0   entry7b.o
         0          0          0          0          0          0   entry8b.o
         8          4          0          0          0          0   entry9a.o
        12          6          0          4          0         68   errno.o
        30          0          0          0          0          0   handlers.o
        36          8          0          0          0         68   init.o
         0          0          0          0          0          0   iusefp.o
        30          0          0          0          0         68   llshl.o
        36          0          0          0          0         68   llsshr.o
        32          0          0          0          0         68   llushr.o
        36          0          0          0          0        108   memseta.o
      2276         86          0          0          0        520   printfa.o
        14          0          0          0          0         68   strlen.o
        44          0          0          0          0         80   uidiv.o
        98          0          0          0          0         92   uldiv.o
        48          0          0          0          0         68   cdrcmple.o
        56          0          0          0          0         88   d2f.o
       334          0          0          0          0        148   dadd.o
       222          0          0          0          0        100   ddiv.o
       186          0          0          0          0        176   depilogue.o
        48          0          0          0          0         68   dfixul.o
        34          0          0          0          0         76   dflti.o
        26          0          0          0          0         76   dfltui.o
       228          0          0          0          0         96   dmul.o
       162          0          0          0          0        100   dsqrt.o
        38          0          0          0          0         68   f2d.o
       110          0          0          0          0        168   fepilogue.o
       212         54          0         24         52       3383   m2g.o
       468         54          5         60         22       7929   touchkey.o

    ----------------------------------------------------------------------
      5020        216          8         88         80      13900   Library Totals
         4          0          3          0          6          0   (incl. Padding)

    ----------------------------------------------------------------------

      Code (inc. data)   RO Data    RW Data    ZI Data      Debug   Library Name

       122          0          0          0          0        148   m_wm.l
      2722        108          0          4          0       1208   mc_w.l
      1492          0          0          0          0       1232   mf_w.l
       680        108          5         84         74      11312   stm302.lib

    ----------------------------------------------------------------------
      5020        216          8         88         80      13900   Library Totals

    ----------------------------------------------------------------------

==============================================================================


      Code (inc. data)   RO Data    RW Data    ZI Data      Debug   

     28996       1690       2452        480       7384     781625   Grand Totals
     28996       1690       2452         32       7384     781625   ELF Image Totals (compressed)
     28996       1690       2452         32          0          0   ROM Totals

==============================================================================

    Total RO  Size (Code + RO Data)                31448 (  30.71kB)
    Total RW  Size (RW Data + ZI Data)              7864 (   7.68kB)
    Total ROM Size (Code + RO Data + RW Data)      31480 (  30.74kB)

==============================================================================

